	.cpu cortex-m33
	.arch armv8-m.main
	.fpu fpv5-sp-d16
	.eabi_attribute 27, 1
	.eabi_attribute 28, 1
	.eabi_attribute 20, 1
	.eabi_attribute 21, 1
	.eabi_attribute 23, 3
	.eabi_attribute 24, 1
	.eabi_attribute 25, 1
	.eabi_attribute 26, 1
	.eabi_attribute 30, 6
	.eabi_attribute 34, 1
	.eabi_attribute 18, 2
	.file	"application.c"
	.text
	.section	.MTBDR_MEM,"ax",%progbits
	.align	1
	.global	application
	.syntax unified
	.thumb
	.thumb_func
	.type	application, %function
application:
	@ args = 0, pretend = 0, frame = 32
	@ frame_needed = 1, uses_anonymous_args = 0
	push	{r4, r7, lr}
	sub	sp, sp, #36
	add	r7, sp, #0
	movs	r3, #0
	str	r3, [r7, #28]
	movs	r3, #0
	str	r3, [r7, #24]
	b	.L2
.L5:
	ldr	r3, [r7, #24]
	cmp	r3, #0
	and	r3, r3, #1
	it	lt
	rsblt	r3, r3, #0
	cmp	r3, #1
	bne	.L3
	ldr	r3, [r7, #24]
	lsls	r3, r3, #2
	adds	r3, r3, #32
	add	r3, r3, r7
	ldr	r3, [r3, #-28]
	ldr	r2, [r7, #28]
	add	r3, r3, r2
	str	r3, [r7, #28]
	b	.L4
.L3:
	ldr	r3, [r7, #24]
	lsls	r3, r3, #2
	adds	r3, r3, #32
	add	r3, r3, r7
	ldr	r3, [r3, #-28]
	adds	r4, r3, #1
	ldr	r3, [r7, #24]
	lsls	r3, r3, #2
	adds	r3, r3, #32
	add	r3, r3, r7
	ldr	r3, [r3, #-28]
	mov	r0, r3
	bl	random_code
	mov	r3, r0
	add	r3, r3, r4
	ldr	r2, [r7, #28]
	add	r3, r3, r2
	str	r3, [r7, #28]
.L4:
	ldr	r3, [r7, #24]
	adds	r3, r3, #1
	str	r3, [r7, #24]
.L2:
	ldr	r3, [r7, #24]
	cmp	r3, #9
	ble	.L5
	ldr	r3, [r7, #28]
	adds	r3, r3, #2
	str	r3, [r7, #28]
	nop
	adds	r7, r7, #36
	mov	sp, r7
	@ sp needed
	pop	{r4, r7, pc}
	.size	application, .-application
	.align	1
	.global	application_entry
	.syntax unified
	.thumb
	.thumb_func
	.type	application_entry, %function
application_entry:
	@ args = 0, pretend = 0, frame = 0
	@ frame_needed = 1, uses_anonymous_args = 0
	push	{r7, lr}
	add	r7, sp, #0
	bl	application
	nop
	pop	{r7, pc}
	.size	application_entry, .-application_entry
	.align	1
	.global	random_code
	.syntax unified
	.thumb
	.thumb_func
	.type	random_code, %function
random_code:
	@ args = 0, pretend = 0, frame = 8
	@ frame_needed = 1, uses_anonymous_args = 0
	@ link register save eliminated.
	push	{r7}
	sub	sp, sp, #12
	add	r7, sp, #0
	str	r0, [r7, #4]
	ldr	r3, [r7, #4]
	adds	r2, r3, #1
	str	r2, [r7, #4]
	mov	r0, r3
	adds	r7, r7, #12
	mov	sp, r7
	@ sp needed
	ldr	r7, [sp], #4
	bx	lr
	.size	random_code, .-random_code
	.section	.MTBTMP_MEM,"ax",%progbits
	.align	1
	.global	trampoline_mtbdr
	.syntax unified
	.thumb
	.thumb_func
	.type	trampoline_mtbdr, %function
trampoline_mtbdr:
	@ Naked Function: prologue and epilogue provided by programmer.
	@ args = 0, pretend = 0, frame = 0
	@ frame_needed = 1, uses_anonymous_args = 0
	.syntax unified
@ 1548 "application.c" 1
	nop
nop
nop
nop
nop
nop
nop
nop
nop
nop
nop
nop
nop
nop
nop
nop
nop
nop

@ 0 "" 2
@ 1548 "application.c" 1
	nop
nop
nop
nop
nop
nop
nop
nop
nop
nop
nop
nop
nop
nop
nop
nop
nop
nop

@ 0 "" 2
@ 1548 "application.c" 1
	nop
nop
nop
nop
nop
nop
nop
nop
nop
nop
nop
nop
nop
nop
nop
nop
nop
nop

@ 0 "" 2
@ 1548 "application.c" 1
	nop
nop
nop
nop
nop
nop
nop
nop
nop
nop
nop
nop
nop
nop
nop
nop
nop
nop

@ 0 "" 2
@ 1548 "application.c" 1
	nop
nop
nop
nop
nop
nop
nop
nop
nop
nop
nop
nop
nop
nop
nop
nop
nop
nop

@ 0 "" 2
@ 1548 "application.c" 1
	nop
nop
nop
nop
nop
nop
nop
nop
nop
nop
nop
nop
nop
nop
nop
nop
nop
nop

@ 0 "" 2
@ 1548 "application.c" 1
	nop
nop
nop
nop
nop
nop
nop
nop
nop
nop
nop
nop
nop
nop
nop
nop
nop
nop

@ 0 "" 2
@ 1548 "application.c" 1
	nop
nop
nop
nop
nop
nop
nop
nop
nop
nop
nop
nop
nop
nop
nop
nop
nop
nop

@ 0 "" 2
@ 1548 "application.c" 1
	nop
nop
nop
nop
nop
nop
nop
nop
nop
nop
nop
nop
nop
nop
nop
nop
nop
nop

@ 0 "" 2
@ 1548 "application.c" 1
	nop
nop
nop
nop
nop
nop
nop
nop
nop
nop
nop
nop
nop
nop
nop
nop
nop
nop

@ 0 "" 2
@ 1548 "application.c" 1
	nop
nop
nop
nop
nop
nop
nop
nop
nop
nop
nop
nop
nop
nop
nop
nop
nop
nop

@ 0 "" 2
@ 1548 "application.c" 1
	nop
nop
nop
nop
nop
nop
nop
nop
nop
nop
nop
nop
nop
nop
nop
nop
nop
nop

@ 0 "" 2
@ 1548 "application.c" 1
	nop
nop
nop
nop
nop
nop
nop
nop
nop
nop
nop
nop
nop
nop
nop
nop
nop
nop

@ 0 "" 2
@ 1548 "application.c" 1
	nop
nop
nop
nop
nop
nop
nop
nop
nop
nop
nop
nop
nop
nop
nop
nop
nop
nop

@ 0 "" 2
@ 1548 "application.c" 1
	nop
nop
nop
nop
nop
nop
nop
nop
nop
nop
nop
nop
nop
nop
nop
nop
nop
nop

@ 0 "" 2
@ 1548 "application.c" 1
	nop
nop
nop
nop
nop
nop
nop
nop
nop
nop
nop
nop
nop
nop
nop
nop
nop
nop

@ 0 "" 2
@ 1548 "application.c" 1
	nop
nop
nop
nop
nop
nop
nop
nop
nop
nop
nop
nop
nop
nop
nop
nop
nop
nop

@ 0 "" 2
@ 1548 "application.c" 1
	nop
nop
nop
nop
nop
nop
nop
nop
nop
nop
nop
nop
nop
nop
nop
nop
nop
nop

@ 0 "" 2
@ 1548 "application.c" 1
	nop
nop
nop
nop
nop
nop
nop
nop
nop
nop
nop
nop
nop
nop
nop
nop
nop
nop

@ 0 "" 2
@ 1548 "application.c" 1
	nop
nop
nop
nop
nop
nop
nop
nop
nop
nop
nop
nop
nop
nop
nop
nop
nop
nop

@ 0 "" 2
@ 1548 "application.c" 1
	nop
nop
nop
nop
nop
nop
nop
nop
nop
nop
nop
nop
nop
nop
nop
nop
nop
nop

@ 0 "" 2
@ 1548 "application.c" 1
	nop
nop
nop
nop
nop
nop
nop
nop
nop
nop
nop
nop
nop
nop
nop
nop
nop
nop

@ 0 "" 2
@ 1548 "application.c" 1
	nop
nop
nop
nop
nop
nop
nop
nop
nop
nop
nop
nop
nop
nop
nop
nop
nop
nop

@ 0 "" 2
@ 1548 "application.c" 1
	nop
nop
nop
nop
nop
nop
nop
nop
nop
nop
nop
nop
nop
nop
nop
nop
nop
nop

@ 0 "" 2
@ 1548 "application.c" 1
	nop
nop
nop
nop
nop
nop
nop
nop
nop
nop
nop
nop
nop
nop
nop
nop
nop
nop

@ 0 "" 2
@ 1548 "application.c" 1
	nop
nop
nop
nop
nop
nop
nop
nop
nop
nop
nop
nop
nop
nop
nop
nop
nop
nop

@ 0 "" 2
@ 1548 "application.c" 1
	nop
nop
nop
nop
nop
nop
nop
nop
nop
nop
nop
nop
nop
nop
nop
nop
nop
nop

@ 0 "" 2
@ 1548 "application.c" 1
	nop
nop
nop
nop
nop
nop
nop
nop
nop
nop
nop
nop
nop
nop
nop
nop
nop
nop

@ 0 "" 2
@ 1548 "application.c" 1
	nop
nop
nop
nop
nop
nop
nop
nop
nop
nop
nop
nop
nop
nop
nop
nop
nop
nop

@ 0 "" 2
@ 1548 "application.c" 1
	nop
nop
nop
nop
nop
nop
nop
nop
nop
nop
nop
nop
nop
nop
nop
nop
nop
nop

@ 0 "" 2
@ 1548 "application.c" 1
	nop
nop
nop
nop
nop
nop
nop
nop
nop
nop
nop
nop
nop
nop
nop
nop
nop
nop

@ 0 "" 2
@ 1548 "application.c" 1
	nop
nop
nop
nop
nop
nop
nop
nop
nop
nop
nop
nop
nop
nop
nop
nop
nop
nop

@ 0 "" 2
@ 1548 "application.c" 1
	nop
nop
nop
nop
nop
nop
nop
nop
nop
nop
nop
nop
nop
nop
nop
nop
nop
nop

@ 0 "" 2
@ 1548 "application.c" 1
	nop
nop
nop
nop
nop
nop
nop
nop
nop
nop
nop
nop
nop
nop
nop
nop
nop
nop

@ 0 "" 2
@ 1548 "application.c" 1
	nop
nop
nop
nop
nop
nop
nop
nop
nop
nop
nop
nop
nop
nop
nop
nop
nop
nop

@ 0 "" 2
@ 1548 "application.c" 1
	nop
nop
nop
nop
nop
nop
nop
nop
nop
nop
nop
nop
nop
nop
nop
nop
nop
nop

@ 0 "" 2
@ 1548 "application.c" 1
	nop
nop
nop
nop
nop
nop
nop
nop
nop
nop
nop
nop
nop
nop
nop
nop
nop
nop

@ 0 "" 2
@ 1548 "application.c" 1
	nop
nop
nop
nop
nop
nop
nop
nop
nop
nop
nop
nop
nop
nop
nop
nop
nop
nop

@ 0 "" 2
@ 1548 "application.c" 1
	nop
nop
nop
nop
nop
nop
nop
nop
nop
nop
nop
nop
nop
nop
nop
nop
nop
nop

@ 0 "" 2
@ 1548 "application.c" 1
	nop
nop
nop
nop
nop
nop
nop
nop
nop
nop
nop
nop
nop
nop
nop
nop
nop
nop

@ 0 "" 2
@ 1548 "application.c" 1
	nop
nop
nop
nop
nop
nop
nop
nop
nop
nop
nop
nop
nop
nop
nop
nop
nop
nop

@ 0 "" 2
@ 1548 "application.c" 1
	nop
nop
nop
nop
nop
nop
nop
nop
nop
nop
nop
nop
nop
nop
nop
nop
nop
nop

@ 0 "" 2
@ 1548 "application.c" 1
	nop
nop
nop
nop
nop
nop
nop
nop
nop
nop
nop
nop
nop
nop
nop
nop
nop
nop

@ 0 "" 2
@ 1548 "application.c" 1
	nop
nop
nop
nop
nop
nop
nop
nop
nop
nop
nop
nop
nop
nop
nop
nop
nop
nop

@ 0 "" 2
@ 1548 "application.c" 1
	nop
nop
nop
nop
nop
nop
nop
nop
nop
nop
nop
nop
nop
nop
nop
nop
nop
nop

@ 0 "" 2
@ 1548 "application.c" 1
	nop
nop
nop
nop
nop
nop
nop
nop
nop
nop
nop
nop
nop
nop
nop
nop
nop
nop

@ 0 "" 2
@ 1548 "application.c" 1
	nop
nop
nop
nop
nop
nop
nop
nop
nop
nop
nop
nop
nop
nop
nop
nop
nop
nop

@ 0 "" 2
@ 1548 "application.c" 1
	nop
nop
nop
nop
nop
nop
nop
nop
nop
nop
nop
nop
nop
nop
nop
nop
nop
nop

@ 0 "" 2
@ 1548 "application.c" 1
	nop
nop
nop
nop
nop
nop
nop
nop
nop
nop
nop
nop
nop
nop
nop
nop
nop
nop

@ 0 "" 2
@ 1548 "application.c" 1
	nop
nop
nop
nop
nop
nop
nop
nop
nop
nop
nop
nop
nop
nop
nop
nop
nop
nop

@ 0 "" 2
@ 1548 "application.c" 1
	nop
nop
nop
nop
nop
nop
nop
nop
nop
nop
nop
nop
nop
nop
nop
nop
nop
nop

@ 0 "" 2
@ 1548 "application.c" 1
	nop
nop
nop
nop
nop
nop
nop
nop
nop
nop
nop
nop
nop
nop
nop
nop
nop
nop

@ 0 "" 2
@ 1548 "application.c" 1
	nop
nop
nop
nop
nop
nop
nop
nop
nop
nop
nop
nop
nop
nop
nop
nop
nop
nop

@ 0 "" 2
@ 1548 "application.c" 1
	nop
nop
nop
nop
nop
nop
nop
nop
nop
nop
nop
nop
nop
nop
nop
nop
nop
nop

@ 0 "" 2
@ 1548 "application.c" 1
	nop
nop
nop
nop
nop
nop
nop
nop
nop
nop
nop
nop
nop
nop
nop
nop
nop
nop

@ 0 "" 2
@ 1548 "application.c" 1
	nop
nop
nop
nop
nop
nop
nop
nop
nop
nop
nop
nop
nop
nop
nop
nop
nop
nop

@ 0 "" 2
@ 1548 "application.c" 1
	nop
nop
nop
nop
nop
nop
nop
nop
nop
nop
nop
nop
nop
nop
nop
nop
nop
nop

@ 0 "" 2
@ 1548 "application.c" 1
	nop
nop
nop
nop
nop
nop
nop
nop
nop
nop
nop
nop
nop
nop
nop
nop
nop
nop

@ 0 "" 2
@ 1548 "application.c" 1
	nop
nop
nop
nop
nop
nop
nop
nop
nop
nop
nop
nop
nop
nop
nop
nop
nop
nop

@ 0 "" 2
@ 1548 "application.c" 1
	nop
nop
nop
nop
nop
nop
nop
nop
nop
nop
nop
nop
nop
nop
nop
nop
nop
nop

@ 0 "" 2
@ 1548 "application.c" 1
	nop
nop
nop
nop
nop
nop
nop
nop
nop
nop
nop
nop
nop
nop
nop
nop
nop
nop

@ 0 "" 2
@ 1548 "application.c" 1
	nop
nop
nop
nop
nop
nop
nop
nop
nop
nop
nop
nop
nop
nop
nop
nop
nop
nop

@ 0 "" 2
@ 1548 "application.c" 1
	nop
nop
nop
nop
nop
nop
nop
nop
nop
nop
nop
nop
nop
nop
nop
nop
nop
nop

@ 0 "" 2
@ 1548 "application.c" 1
	nop
nop
nop
nop
nop
nop
nop
nop
nop
nop
nop
nop
nop
nop
nop
nop
nop
nop

@ 0 "" 2
@ 1548 "application.c" 1
	nop
nop
nop
nop
nop
nop
nop
nop
nop
nop
nop
nop
nop
nop
nop
nop
nop
nop

@ 0 "" 2
@ 1548 "application.c" 1
	nop
nop
nop
nop
nop
nop
nop
nop
nop
nop
nop
nop
nop
nop
nop
nop
nop
nop

@ 0 "" 2
@ 1548 "application.c" 1
	nop
nop
nop
nop
nop
nop
nop
nop
nop
nop
nop
nop
nop
nop
nop
nop
nop
nop

@ 0 "" 2
@ 1548 "application.c" 1
	nop
nop
nop
nop
nop
nop
nop
nop
nop
nop
nop
nop
nop
nop
nop
nop
nop
nop

@ 0 "" 2
@ 1548 "application.c" 1
	nop
nop
nop
nop
nop
nop
nop
nop
nop
nop
nop
nop
nop
nop
nop
nop
nop
nop

@ 0 "" 2
@ 1548 "application.c" 1
	nop
nop
nop
nop
nop
nop
nop
nop
nop
nop
nop
nop
nop
nop
nop
nop
nop
nop

@ 0 "" 2
@ 1548 "application.c" 1
	nop
nop
nop
nop
nop
nop
nop
nop
nop
nop
nop
nop
nop
nop
nop
nop
nop
nop

@ 0 "" 2
@ 1548 "application.c" 1
	nop
nop
nop
nop
nop
nop
nop
nop
nop
nop
nop
nop
nop
nop
nop
nop
nop
nop

@ 0 "" 2
	.thumb
	.syntax unified
	nop
	.size	trampoline_mtbdr, .-trampoline_mtbdr
	.section	.MTBAR_MEM,"ax",%progbits
	.align	1
	.global	nopes
	.syntax unified
	.thumb
	.thumb_func
	.type	nopes, %function
nopes:
	@ Naked Function: prologue and epilogue provided by programmer.
	@ args = 0, pretend = 0, frame = 0
	@ frame_needed = 1, uses_anonymous_args = 0
	.syntax unified
@ 1549 "application.c" 1
	nop
nop
nop
nop
nop
nop
nop
nop
nop
nop
nop
nop
nop
nop
nop
nop
nop
nop

@ 0 "" 2
@ 1549 "application.c" 1
	nop
nop
nop
nop
nop
nop
nop
nop
nop
nop
nop
nop
nop
nop
nop
nop
nop
nop

@ 0 "" 2
@ 1549 "application.c" 1
	nop
nop
nop
nop
nop
nop
nop
nop
nop
nop
nop
nop
nop
nop
nop
nop
nop
nop

@ 0 "" 2
@ 1549 "application.c" 1
	nop
nop
nop
nop
nop
nop
nop
nop
nop
nop
nop
nop
nop
nop
nop
nop
nop
nop

@ 0 "" 2
@ 1549 "application.c" 1
	nop
nop
nop
nop
nop
nop
nop
nop
nop
nop
nop
nop
nop
nop
nop
nop
nop
nop

@ 0 "" 2
@ 1549 "application.c" 1
	nop
nop
nop
nop
nop
nop
nop
nop
nop
nop
nop
nop
nop
nop
nop
nop
nop
nop

@ 0 "" 2
@ 1549 "application.c" 1
	nop
nop
nop
nop
nop
nop
nop
nop
nop
nop
nop
nop
nop
nop
nop
nop
nop
nop

@ 0 "" 2
@ 1549 "application.c" 1
	nop
nop
nop
nop
nop
nop
nop
nop
nop
nop
nop
nop
nop
nop
nop
nop
nop
nop

@ 0 "" 2
@ 1549 "application.c" 1
	nop
nop
nop
nop
nop
nop
nop
nop
nop
nop
nop
nop
nop
nop
nop
nop
nop
nop

@ 0 "" 2
@ 1549 "application.c" 1
	nop
nop
nop
nop
nop
nop
nop
nop
nop
nop
nop
nop
nop
nop
nop
nop
nop
nop

@ 0 "" 2
@ 1549 "application.c" 1
	nop
nop
nop
nop
nop
nop
nop
nop
nop
nop
nop
nop
nop
nop
nop
nop
nop
nop

@ 0 "" 2
@ 1549 "application.c" 1
	nop
nop
nop
nop
nop
nop
nop
nop
nop
nop
nop
nop
nop
nop
nop
nop
nop
nop

@ 0 "" 2
@ 1549 "application.c" 1
	nop
nop
nop
nop
nop
nop
nop
nop
nop
nop
nop
nop
nop
nop
nop
nop
nop
nop

@ 0 "" 2
@ 1549 "application.c" 1
	nop
nop
nop
nop
nop
nop
nop
nop
nop
nop
nop
nop
nop
nop
nop
nop
nop
nop

@ 0 "" 2
@ 1549 "application.c" 1
	nop
nop
nop
nop
nop
nop
nop
nop
nop
nop
nop
nop
nop
nop
nop
nop
nop
nop

@ 0 "" 2
@ 1549 "application.c" 1
	nop
nop
nop
nop
nop
nop
nop
nop
nop
nop
nop
nop
nop
nop
nop
nop
nop
nop

@ 0 "" 2
@ 1549 "application.c" 1
	nop
nop
nop
nop
nop
nop
nop
nop
nop
nop
nop
nop
nop
nop
nop
nop
nop
nop

@ 0 "" 2
@ 1549 "application.c" 1
	nop
nop
nop
nop
nop
nop
nop
nop
nop
nop
nop
nop
nop
nop
nop
nop
nop
nop

@ 0 "" 2
@ 1549 "application.c" 1
	nop
nop
nop
nop
nop
nop
nop
nop
nop
nop
nop
nop
nop
nop
nop
nop
nop
nop

@ 0 "" 2
@ 1549 "application.c" 1
	nop
nop
nop
nop
nop
nop
nop
nop
nop
nop
nop
nop
nop
nop
nop
nop
nop
nop

@ 0 "" 2
@ 1549 "application.c" 1
	nop
nop
nop
nop
nop
nop
nop
nop
nop
nop
nop
nop
nop
nop
nop
nop
nop
nop

@ 0 "" 2
@ 1549 "application.c" 1
	nop
nop
nop
nop
nop
nop
nop
nop
nop
nop
nop
nop
nop
nop
nop
nop
nop
nop

@ 0 "" 2
@ 1549 "application.c" 1
	nop
nop
nop
nop
nop
nop
nop
nop
nop
nop
nop
nop
nop
nop
nop
nop
nop
nop

@ 0 "" 2
@ 1549 "application.c" 1
	nop
nop
nop
nop
nop
nop
nop
nop
nop
nop
nop
nop
nop
nop
nop
nop
nop
nop

@ 0 "" 2
@ 1549 "application.c" 1
	nop
nop
nop
nop
nop
nop
nop
nop
nop
nop
nop
nop
nop
nop
nop
nop
nop
nop

@ 0 "" 2
@ 1549 "application.c" 1
	nop
nop
nop
nop
nop
nop
nop
nop
nop
nop
nop
nop
nop
nop
nop
nop
nop
nop

@ 0 "" 2
@ 1549 "application.c" 1
	nop
nop
nop
nop
nop
nop
nop
nop
nop
nop
nop
nop
nop
nop
nop
nop
nop
nop

@ 0 "" 2
@ 1549 "application.c" 1
	nop
nop
nop
nop
nop
nop
nop
nop
nop
nop
nop
nop
nop
nop
nop
nop
nop
nop

@ 0 "" 2
@ 1549 "application.c" 1
	nop
nop
nop
nop
nop
nop
nop
nop
nop
nop
nop
nop
nop
nop
nop
nop
nop
nop

@ 0 "" 2
@ 1549 "application.c" 1
	nop
nop
nop
nop
nop
nop
nop
nop
nop
nop
nop
nop
nop
nop
nop
nop
nop
nop

@ 0 "" 2
@ 1549 "application.c" 1
	nop
nop
nop
nop
nop
nop
nop
nop
nop
nop
nop
nop
nop
nop
nop
nop
nop
nop

@ 0 "" 2
@ 1549 "application.c" 1
	nop
nop
nop
nop
nop
nop
nop
nop
nop
nop
nop
nop
nop
nop
nop
nop
nop
nop

@ 0 "" 2
@ 1549 "application.c" 1
	nop
nop
nop
nop
nop
nop
nop
nop
nop
nop
nop
nop
nop
nop
nop
nop
nop
nop

@ 0 "" 2
@ 1549 "application.c" 1
	nop
nop
nop
nop
nop
nop
nop
nop
nop
nop
nop
nop
nop
nop
nop
nop
nop
nop

@ 0 "" 2
@ 1549 "application.c" 1
	nop
nop
nop
nop
nop
nop
nop
nop
nop
nop
nop
nop
nop
nop
nop
nop
nop
nop

@ 0 "" 2
@ 1549 "application.c" 1
	nop
nop
nop
nop
nop
nop
nop
nop
nop
nop
nop
nop
nop
nop
nop
nop
nop
nop

@ 0 "" 2
@ 1549 "application.c" 1
	nop
nop
nop
nop
nop
nop
nop
nop
nop
nop
nop
nop
nop
nop
nop
nop
nop
nop

@ 0 "" 2
@ 1549 "application.c" 1
	nop
nop
nop
nop
nop
nop
nop
nop
nop
nop
nop
nop
nop
nop
nop
nop
nop
nop

@ 0 "" 2
@ 1549 "application.c" 1
	nop
nop
nop
nop
nop
nop
nop
nop
nop
nop
nop
nop
nop
nop
nop
nop
nop
nop

@ 0 "" 2
@ 1549 "application.c" 1
	nop
nop
nop
nop
nop
nop
nop
nop
nop
nop
nop
nop
nop
nop
nop
nop
nop
nop

@ 0 "" 2
@ 1549 "application.c" 1
	nop
nop
nop
nop
nop
nop
nop
nop
nop
nop
nop
nop
nop
nop
nop
nop
nop
nop

@ 0 "" 2
@ 1549 "application.c" 1
	nop
nop
nop
nop
nop
nop
nop
nop
nop
nop
nop
nop
nop
nop
nop
nop
nop
nop

@ 0 "" 2
@ 1549 "application.c" 1
	nop
nop
nop
nop
nop
nop
nop
nop
nop
nop
nop
nop
nop
nop
nop
nop
nop
nop

@ 0 "" 2
@ 1549 "application.c" 1
	nop
nop
nop
nop
nop
nop
nop
nop
nop
nop
nop
nop
nop
nop
nop
nop
nop
nop

@ 0 "" 2
@ 1549 "application.c" 1
	nop
nop
nop
nop
nop
nop
nop
nop
nop
nop
nop
nop
nop
nop
nop
nop
nop
nop

@ 0 "" 2
@ 1549 "application.c" 1
	nop
nop
nop
nop
nop
nop
nop
nop
nop
nop
nop
nop
nop
nop
nop
nop
nop
nop

@ 0 "" 2
@ 1549 "application.c" 1
	nop
nop
nop
nop
nop
nop
nop
nop
nop
nop
nop
nop
nop
nop
nop
nop
nop
nop

@ 0 "" 2
@ 1549 "application.c" 1
	nop
nop
nop
nop
nop
nop
nop
nop
nop
nop
nop
nop
nop
nop
nop
nop
nop
nop

@ 0 "" 2
@ 1549 "application.c" 1
	nop
nop
nop
nop
nop
nop
nop
nop
nop
nop
nop
nop
nop
nop
nop
nop
nop
nop

@ 0 "" 2
@ 1549 "application.c" 1
	nop
nop
nop
nop
nop
nop
nop
nop
nop
nop
nop
nop
nop
nop
nop
nop
nop
nop

@ 0 "" 2
@ 1549 "application.c" 1
	nop
nop
nop
nop
nop
nop
nop
nop
nop
nop
nop
nop
nop
nop
nop
nop
nop
nop

@ 0 "" 2
@ 1549 "application.c" 1
	nop
nop
nop
nop
nop
nop
nop
nop
nop
nop
nop
nop
nop
nop
nop
nop
nop
nop

@ 0 "" 2
@ 1549 "application.c" 1
	nop
nop
nop
nop
nop
nop
nop
nop
nop
nop
nop
nop
nop
nop
nop
nop
nop
nop

@ 0 "" 2
@ 1549 "application.c" 1
	nop
nop
nop
nop
nop
nop
nop
nop
nop
nop
nop
nop
nop
nop
nop
nop
nop
nop

@ 0 "" 2
@ 1549 "application.c" 1
	nop
nop
nop
nop
nop
nop
nop
nop
nop
nop
nop
nop
nop
nop
nop
nop
nop
nop

@ 0 "" 2
@ 1549 "application.c" 1
	nop
nop
nop
nop
nop
nop
nop
nop
nop
nop
nop
nop
nop
nop
nop
nop
nop
nop

@ 0 "" 2
@ 1549 "application.c" 1
	nop
nop
nop
nop
nop
nop
nop
nop
nop
nop
nop
nop
nop
nop
nop
nop
nop
nop

@ 0 "" 2
@ 1549 "application.c" 1
	nop
nop
nop
nop
nop
nop
nop
nop
nop
nop
nop
nop
nop
nop
nop
nop
nop
nop

@ 0 "" 2
@ 1549 "application.c" 1
	nop
nop
nop
nop
nop
nop
nop
nop
nop
nop
nop
nop
nop
nop
nop
nop
nop
nop

@ 0 "" 2
@ 1549 "application.c" 1
	nop
nop
nop
nop
nop
nop
nop
nop
nop
nop
nop
nop
nop
nop
nop
nop
nop
nop

@ 0 "" 2
@ 1549 "application.c" 1
	nop
nop
nop
nop
nop
nop
nop
nop
nop
nop
nop
nop
nop
nop
nop
nop
nop
nop

@ 0 "" 2
@ 1549 "application.c" 1
	nop
nop
nop
nop
nop
nop
nop
nop
nop
nop
nop
nop
nop
nop
nop
nop
nop
nop

@ 0 "" 2
@ 1549 "application.c" 1
	nop
nop
nop
nop
nop
nop
nop
nop
nop
nop
nop
nop
nop
nop
nop
nop
nop
nop

@ 0 "" 2
@ 1549 "application.c" 1
	nop
nop
nop
nop
nop
nop
nop
nop
nop
nop
nop
nop
nop
nop
nop
nop
nop
nop

@ 0 "" 2
@ 1549 "application.c" 1
	nop
nop
nop
nop
nop
nop
nop
nop
nop
nop
nop
nop
nop
nop
nop
nop
nop
nop

@ 0 "" 2
@ 1549 "application.c" 1
	nop
nop
nop
nop
nop
nop
nop
nop
nop
nop
nop
nop
nop
nop
nop
nop
nop
nop

@ 0 "" 2
@ 1549 "application.c" 1
	nop
nop
nop
nop
nop
nop
nop
nop
nop
nop
nop
nop
nop
nop
nop
nop
nop
nop

@ 0 "" 2
@ 1549 "application.c" 1
	nop
nop
nop
nop
nop
nop
nop
nop
nop
nop
nop
nop
nop
nop
nop
nop
nop
nop

@ 0 "" 2
@ 1549 "application.c" 1
	nop
nop
nop
nop
nop
nop
nop
nop
nop
nop
nop
nop
nop
nop
nop
nop
nop
nop

@ 0 "" 2
@ 1549 "application.c" 1
	nop
nop
nop
nop
nop
nop
nop
nop
nop
nop
nop
nop
nop
nop
nop
nop
nop
nop

@ 0 "" 2
@ 1549 "application.c" 1
	nop
nop
nop
nop
nop
nop
nop
nop
nop
nop
nop
nop
nop
nop
nop
nop
nop
nop

@ 0 "" 2
@ 1549 "application.c" 1
	nop
nop
nop
nop
nop
nop
nop
nop
nop
nop
nop
nop
nop
nop
nop
nop
nop
nop

@ 0 "" 2
	.thumb
	.syntax unified
	nop
	.size	nopes, .-nopes
	.ident	"GCC: (GNU Tools for STM32 12.3.rel1.20240612-1315) 12.3.1 20230626"
