
P:\Workspace\Git\MTB_CFA\IOTKit_CM33_S_NS\out\IOTKit_CM33_s\V2MMPS2\IOTKit_CM33_s.axf:     file format elf32-littlearm


Disassembly of section ER_ROM:

10000000 <__Vectors>:
10000000:	f8 ff 1f 38 89 34 00 10 a1 13 00 10 21 34 00 10     ...8.4......!4..
10000010:	a1 13 00 10 a1 13 00 10 a1 13 00 10 a1 13 00 10     ................
	...
1000002c:	a1 13 00 10 a1 13 00 10 00 00 00 00 a1 13 00 10     ................
1000003c:	51 3c 00 10 a1 13 00 10 a1 13 00 10 a1 13 00 10     Q<..............
1000004c:	a1 13 00 10 a1 13 00 10 a1 13 00 10 00 00 00 00     ................
	...
10000064:	a1 13 00 10 a1 13 00 10 a1 13 00 10 a1 13 00 10     ................
	...
100000c0:	a5 3d 00 10 fd 3d 00 10 a1 13 00 10 a1 13 00 10     .=...=..........
100000d0:	a1 13 00 10 a1 13 00 10 a1 13 00 10 a1 13 00 10     ................
100000e0:	a1 13 00 10 a1 13 00 10 a1 13 00 10 a1 13 00 10     ................
100000f0:	a1 13 00 10 a1 13 00 10 a1 13 00 10 a1 13 00 10     ................
10000100:	a1 13 00 10 a1 13 00 10 a1 13 00 10 a1 13 00 10     ................
10000110:	a1 13 00 10 a1 13 00 10 a1 13 00 10 a1 13 00 10     ................
10000120:	a1 13 00 10 a1 13 00 10 a1 13 00 10 a1 13 00 10     ................
10000130:	a1 13 00 10 a1 13 00 10 a1 13 00 10 a1 13 00 10     ................
10000140:	a1 13 00 10 a1 13 00 10 a1 13 00 10 a1 13 00 10     ................
10000150:	a1 13 00 10 a1 13 00 10 a1 13 00 10 a1 13 00 10     ................
10000160:	a1 13 00 10 a1 13 00 10 a1 13 00 10 a1 13 00 10     ................
10000170:	a1 13 00 10 a1 13 00 10 a1 13 00 10 a1 13 00 10     ................
10000180:	a1 13 00 10 a1 13 00 10 a1 13 00 10 a1 13 00 10     ................
10000190:	a1 13 00 10 a1 13 00 10 a1 13 00 10 a1 13 00 10     ................
100001a0:	a1 13 00 10 a1 13 00 10 a1 13 00 10 a1 13 00 10     ................
100001b0:	a1 13 00 10 a1 13 00 10 a1 13 00 10 a1 13 00 10     ................
100001c0:	a1 13 00 10 a1 13 00 10 a1 13 00 10 a1 13 00 10     ................
100001d0:	a1 13 00 10 a1 13 00 10 a1 13 00 10 a1 13 00 10     ................
100001e0:	a1 13 00 10 a1 13 00 10 a1 13 00 10 a1 13 00 10     ................
100001f0:	a1 13 00 10 a1 13 00 10 a1 13 00 10 a1 13 00 10     ................
10000200:	a1 13 00 10 a1 13 00 10 a1 13 00 10 a1 13 00 10     ................
10000210:	a1 13 00 10 a1 13 00 10 a1 13 00 10 a1 13 00 10     ................
10000220:	a1 13 00 10 a1 13 00 10 a1 13 00 10 a1 13 00 10     ................
	...

10000400 <__main>:
10000400:	f000 f802 	bl	10000408 <__scatterload_rt2>
10000404:	f000 f86a 	bl	100004dc <__rt_entry>

10000408 <__scatterload_rt2>:
10000408:	a614      	add	r6, pc, #80	@ (adr r6, 1000045c <__scatterload_loop+0x4a>)
1000040a:	e896 0c00 	ldmia.w	r6, {sl, fp}
1000040e:	44b2      	add	sl, r6
10000410:	44b3      	add	fp, r6

10000412 <__scatterload_loop>:
10000412:	45da      	cmp	sl, fp
10000414:	d101      	bne.n	1000041a <__scatterload_loop+0x8>
10000416:	f000 f861 	bl	100004dc <__rt_entry>
1000041a:	e8ba 000f 	ldmia.w	sl!, {r0, r1, r2, r3}
1000041e:	a60f      	add	r6, pc, #60	@ (adr r6, 1000045c <__scatterload_loop+0x4a>)
10000420:	e896 0030 	ldmia.w	r6, {r4, r5}
10000424:	eba5 0504 	sub.w	r5, r5, r4
10000428:	eb04 0706 	add.w	r7, r4, r6
1000042c:	ebaa 0407 	sub.w	r4, sl, r7
10000430:	f1a7 0701 	sub.w	r7, r7, #1
10000434:	ea4f 1515 	mov.w	r5, r5, lsr #4
10000438:	ea4f 1434 	mov.w	r4, r4, ror #4
1000043c:	f1a4 0401 	sub.w	r4, r4, #1
10000440:	42ac      	cmp	r4, r5
10000442:	d301      	bcc.n	10000448 <__scatterload_loop+0x36>
10000444:	f000 f84a 	bl	100004dc <__rt_entry>
10000448:	f013 0f01 	tst.w	r3, #1
1000044c:	bf18      	it	ne
1000044e:	1afb      	subne	r3, r7, r3
10000450:	f043 0301 	orr.w	r3, r3, #1
10000454:	f000 f801 	bl	1000045a <__scatterload_loop+0x48>
10000458:	e7db      	b.n	10000412 <__scatterload_loop>
1000045a:	4718      	bx	r3
1000045c:	00005e30 	.word	0x00005e30
10000460:	00005e50 	.word	0x00005e50

10000464 <__scatterload_copy>:
10000464:	3a10      	subs	r2, #16
10000466:	bf24      	itt	cs
10000468:	c878      	ldmiacs	r0!, {r3, r4, r5, r6}
1000046a:	c178      	stmiacs	r1!, {r3, r4, r5, r6}
1000046c:	d8fa      	bhi.n	10000464 <__scatterload_copy>
1000046e:	0752      	lsls	r2, r2, #29
10000470:	bf24      	itt	cs
10000472:	c830      	ldmiacs	r0!, {r4, r5}
10000474:	c130      	stmiacs	r1!, {r4, r5}
10000476:	bf44      	itt	mi
10000478:	6804      	ldrmi	r4, [r0, #0]
1000047a:	600c      	strmi	r4, [r1, #0]
1000047c:	4770      	bx	lr
	...

10000480 <__scatterload_null>:
10000480:	4770      	bx	lr
	...

10000484 <__scatterload_zeroinit>:
10000484:	2300      	movs	r3, #0
10000486:	2400      	movs	r4, #0
10000488:	2500      	movs	r5, #0
1000048a:	2600      	movs	r6, #0
1000048c:	3a10      	subs	r2, #16
1000048e:	bf28      	it	cs
10000490:	c178      	stmiacs	r1!, {r3, r4, r5, r6}
10000492:	d8fb      	bhi.n	1000048c <__scatterload_zeroinit+0x8>
10000494:	0752      	lsls	r2, r2, #29
10000496:	bf28      	it	cs
10000498:	c130      	stmiacs	r1!, {r4, r5}
1000049a:	bf48      	it	mi
1000049c:	600b      	strmi	r3, [r1, #0]
1000049e:	4770      	bx	lr

100004a0 <_printf_d>:
100004a0:	2964      	cmp	r1, #100	@ 0x64
100004a2:	f000 8095 	beq.w	100005d0 <_printf_int_dec>

100004a6 <_printf_x>:
100004a6:	2978      	cmp	r1, #120	@ 0x78
100004a8:	f000 80ce 	beq.w	10000648 <_printf_int_hex>

100004ac <_printf_s>:
100004ac:	2973      	cmp	r1, #115	@ 0x73
100004ae:	f000 820c 	beq.w	100008ca <_printf_string>

100004b2 <_printf_percent_end>:
100004b2:	2000      	movs	r0, #0
100004b4:	4770      	bx	lr

100004b6 <__rt_lib_init>:
100004b6:	b51f      	push	{r0, r1, r2, r3, r4, lr}

100004b8 <__rt_lib_init_fp_1>:
100004b8:	f004 fbbc 	bl	10004c34 <_fp_init>

100004bc <__rt_lib_init_heap_2>:
100004bc:	4803      	ldr	r0, [pc, #12]	@ (100004cc <__lit__00000000>)
100004be:	4904      	ldr	r1, [pc, #16]	@ (100004d0 <__lit__00000001>)
100004c0:	f000 fd8c 	bl	10000fdc <_init_alloc>

100004c4 <__rt_lib_init_atexit_1>:
100004c4:	f000 fb26 	bl	10000b14 <_initio>

100004c8 <__rt_lib_init_alloca_1>:
100004c8:	bd1f      	pop	{r0, r1, r2, r3, r4, pc}
	...

100004cc <__lit__00000000>:
100004cc:	0a40 3800                                   @..8

100004d0 <__lit__00000001>:
100004d0:	1640 3800                                   @..8

100004d4 <__rt_lib_shutdown>:
100004d4:	b510      	push	{r4, lr}

100004d6 <__rt_lib_shutdown_cpp_1>:
100004d6:	f000 fb86 	bl	10000be6 <_terminateio>

100004da <__rt_lib_shutdown_fp_trap_1>:
100004da:	bd10      	pop	{r4, pc}

100004dc <__rt_entry>:
100004dc:	f8df d00c 	ldr.w	sp, [pc, #12]	@ 100004ec <__lit__00000000>

100004e0 <__rt_entry_li>:
100004e0:	f7ff ffe9 	bl	100004b6 <__rt_lib_init>

100004e4 <__rt_entry_main>:
100004e4:	f004 f886 	bl	100045f4 <main>
100004e8:	f000 fd4c 	bl	10000f84 <exit>

100004ec <__lit__00000000>:
100004ec:	fff8 381f                                   ...8

100004f0 <__rt_exit>:
100004f0:	b403      	push	{r0, r1}

100004f2 <__rt_exit_ls>:
100004f2:	f7ff ffef 	bl	100004d4 <__rt_lib_shutdown>

100004f6 <__rt_exit_exit>:
100004f6:	bc03      	pop	{r0, r1}
100004f8:	f000 fe42 	bl	10001180 <_sys_exit>

100004fc <__2printf>:
100004fc:	b40f      	push	{r0, r1, r2, r3}
100004fe:	4904      	ldr	r1, [pc, #16]	@ (10000510 <__2printf+0x14>)
10000500:	b510      	push	{r4, lr}
10000502:	aa03      	add	r2, sp, #12
10000504:	9802      	ldr	r0, [sp, #8]
10000506:	f000 f9e5 	bl	100008d4 <_printf_char_file>
1000050a:	bc10      	pop	{r4}
1000050c:	f85d fb14 	ldr.w	pc, [sp], #20
10000510:	3800007c 	.word	0x3800007c

10000514 <__printf>:
10000514:	e92d 41f0 	stmdb	sp!, {r4, r5, r6, r7, r8, lr}
10000518:	460e      	mov	r6, r1
1000051a:	4604      	mov	r4, r0
1000051c:	2000      	movs	r0, #0
1000051e:	6220      	str	r0, [r4, #32]
10000520:	4620      	mov	r0, r4
10000522:	68e1      	ldr	r1, [r4, #12]
10000524:	4788      	blx	r1
10000526:	b330      	cbz	r0, 10000576 <__printf+0x62>
10000528:	2825      	cmp	r0, #37	@ 0x25
1000052a:	d005      	beq.n	10000538 <__printf+0x24>
1000052c:	e9d4 2101 	ldrd	r2, r1, [r4, #4]
10000530:	4790      	blx	r2
10000532:	6a20      	ldr	r0, [r4, #32]
10000534:	1c40      	adds	r0, r0, #1
10000536:	e7f2      	b.n	1000051e <__printf+0xa>
10000538:	68e1      	ldr	r1, [r4, #12]
1000053a:	4620      	mov	r0, r4
1000053c:	2700      	movs	r7, #0
1000053e:	4788      	blx	r1
10000540:	0005      	movs	r5, r0
10000542:	d018      	beq.n	10000576 <__printf+0x62>
10000544:	f1a5 0041 	sub.w	r0, r5, #65	@ 0x41
10000548:	2819      	cmp	r0, #25
1000054a:	d802      	bhi.n	10000552 <__printf+0x3e>
1000054c:	3520      	adds	r5, #32
1000054e:	f44f 6700 	mov.w	r7, #2048	@ 0x800
10000552:	4632      	mov	r2, r6
10000554:	4629      	mov	r1, r5
10000556:	4620      	mov	r0, r4
10000558:	6027      	str	r7, [r4, #0]
1000055a:	f7ff ffa1 	bl	100004a0 <_printf_d>
1000055e:	b140      	cbz	r0, 10000572 <__printf+0x5e>
10000560:	2801      	cmp	r0, #1
10000562:	d004      	beq.n	1000056e <__printf+0x5a>
10000564:	1df6      	adds	r6, r6, #7
10000566:	f026 0607 	bic.w	r6, r6, #7
1000056a:	3608      	adds	r6, #8
1000056c:	e7d8      	b.n	10000520 <__printf+0xc>
1000056e:	1d36      	adds	r6, r6, #4
10000570:	e7d6      	b.n	10000520 <__printf+0xc>
10000572:	4628      	mov	r0, r5
10000574:	e7da      	b.n	1000052c <__printf+0x18>
10000576:	6a20      	ldr	r0, [r4, #32]
10000578:	e8bd 81f0 	ldmia.w	sp!, {r4, r5, r6, r7, r8, pc}

1000057c <_printf_str>:
1000057c:	b570      	push	{r4, r5, r6, lr}
1000057e:	460c      	mov	r4, r1
10000580:	4605      	mov	r5, r0
10000582:	2a01      	cmp	r2, #1
10000584:	d005      	beq.n	10000592 <_printf_str+0x16>
10000586:	7828      	ldrb	r0, [r5, #0]
10000588:	0680      	lsls	r0, r0, #26
1000058a:	d500      	bpl.n	1000058e <_printf_str+0x12>
1000058c:	69ea      	ldr	r2, [r5, #28]
1000058e:	2300      	movs	r3, #0
10000590:	e002      	b.n	10000598 <_printf_str+0x1c>
10000592:	2301      	movs	r3, #1
10000594:	e005      	b.n	100005a2 <_printf_str+0x26>
10000596:	1c5b      	adds	r3, r3, #1
10000598:	4293      	cmp	r3, r2
1000059a:	d202      	bcs.n	100005a2 <_printf_str+0x26>
1000059c:	5ce0      	ldrb	r0, [r4, r3]
1000059e:	2800      	cmp	r0, #0
100005a0:	d1f9      	bne.n	10000596 <_printf_str+0x1a>
100005a2:	69a8      	ldr	r0, [r5, #24]
100005a4:	18e6      	adds	r6, r4, r3
100005a6:	1ac0      	subs	r0, r0, r3
100005a8:	61a8      	str	r0, [r5, #24]
100005aa:	6a28      	ldr	r0, [r5, #32]
100005ac:	4418      	add	r0, r3
100005ae:	6228      	str	r0, [r5, #32]
100005b0:	4628      	mov	r0, r5
100005b2:	f3af 8000 	nop.w
100005b6:	e004      	b.n	100005c2 <_printf_str+0x46>
100005b8:	e9d5 2101 	ldrd	r2, r1, [r5, #4]
100005bc:	f814 0b01 	ldrb.w	r0, [r4], #1
100005c0:	4790      	blx	r2
100005c2:	42b4      	cmp	r4, r6
100005c4:	d3f8      	bcc.n	100005b8 <_printf_str+0x3c>
100005c6:	4628      	mov	r0, r5
100005c8:	f3af 8000 	nop.w
100005cc:	bd70      	pop	{r4, r5, r6, pc}
	...

100005d0 <_printf_int_dec>:
100005d0:	e92d 41f0 	stmdb	sp!, {r4, r5, r6, r7, r8, lr}
100005d4:	4606      	mov	r6, r0
100005d6:	2400      	movs	r4, #0
100005d8:	6810      	ldr	r0, [r2, #0]
100005da:	2975      	cmp	r1, #117	@ 0x75
100005dc:	4631      	mov	r1, r6
100005de:	a516      	add	r5, pc, #88	@ (adr r5, 10000638 <_printf_int_dec+0x68>)
100005e0:	d010      	beq.n	10000604 <_printf_int_dec+0x34>
100005e2:	f3af 8000 	nop.w
100005e6:	2800      	cmp	r0, #0
100005e8:	da02      	bge.n	100005f0 <_printf_int_dec+0x20>
100005ea:	4240      	negs	r0, r0
100005ec:	a513      	add	r5, pc, #76	@ (adr r5, 1000063c <_printf_int_dec+0x6c>)
100005ee:	e007      	b.n	10000600 <_printf_int_dec+0x30>
100005f0:	6831      	ldr	r1, [r6, #0]
100005f2:	078a      	lsls	r2, r1, #30
100005f4:	d501      	bpl.n	100005fa <_printf_int_dec+0x2a>
100005f6:	a512      	add	r5, pc, #72	@ (adr r5, 10000640 <_printf_int_dec+0x70>)
100005f8:	e002      	b.n	10000600 <_printf_int_dec+0x30>
100005fa:	0749      	lsls	r1, r1, #29
100005fc:	d504      	bpl.n	10000608 <_printf_int_dec+0x38>
100005fe:	a511      	add	r5, pc, #68	@ (adr r5, 10000644 <_printf_int_dec+0x74>)
10000600:	2401      	movs	r4, #1
10000602:	e001      	b.n	10000608 <_printf_int_dec+0x38>
10000604:	f3af 8000 	nop.w
10000608:	2100      	movs	r1, #0
1000060a:	220a      	movs	r2, #10
1000060c:	f106 0724 	add.w	r7, r6, #36	@ 0x24
10000610:	e009      	b.n	10000626 <_printf_int_dec+0x56>
10000612:	fbb0 fcf2 	udiv	ip, r0, r2
10000616:	fbb0 f3f2 	udiv	r3, r0, r2
1000061a:	fb02 001c 	mls	r0, r2, ip, r0
1000061e:	3030      	adds	r0, #48	@ 0x30
10000620:	5478      	strb	r0, [r7, r1]
10000622:	4618      	mov	r0, r3
10000624:	1c49      	adds	r1, r1, #1
10000626:	2800      	cmp	r0, #0
10000628:	d1f3      	bne.n	10000612 <_printf_int_dec+0x42>
1000062a:	4623      	mov	r3, r4
1000062c:	462a      	mov	r2, r5
1000062e:	4630      	mov	r0, r6
10000630:	e8bd 41f0 	ldmia.w	sp!, {r4, r5, r6, r7, r8, lr}
10000634:	f000 b8de 	b.w	100007f4 <_printf_int_common>
10000638:	00000000 	.word	0x00000000
1000063c:	0000002d 	.word	0x0000002d
10000640:	0000002b 	.word	0x0000002b
10000644:	00000020 	.word	0x00000020

10000648 <_printf_int_hex>:
10000648:	b570      	push	{r4, r5, r6, lr}
1000064a:	4604      	mov	r4, r0
1000064c:	460d      	mov	r5, r1
1000064e:	4621      	mov	r1, r4
10000650:	6810      	ldr	r0, [r2, #0]
10000652:	f3af 8000 	nop.w
10000656:	8821      	ldrh	r1, [r4, #0]
10000658:	0509      	lsls	r1, r1, #20
1000065a:	d502      	bpl.n	10000662 <_printf_int_hex+0x1a>
1000065c:	4a0f      	ldr	r2, [pc, #60]	@ (1000069c <_printf_int_hex+0x54>)
1000065e:	447a      	add	r2, pc
10000660:	e002      	b.n	10000668 <_printf_int_hex+0x20>
10000662:	4a0e      	ldr	r2, [pc, #56]	@ (1000069c <_printf_int_hex+0x54>)
10000664:	447a      	add	r2, pc
10000666:	320e      	adds	r2, #14
10000668:	2100      	movs	r1, #0
1000066a:	f104 0324 	add.w	r3, r4, #36	@ 0x24
1000066e:	e005      	b.n	1000067c <_printf_int_hex+0x34>
10000670:	f000 060f 	and.w	r6, r0, #15
10000674:	0900      	lsrs	r0, r0, #4
10000676:	5d96      	ldrb	r6, [r2, r6]
10000678:	545e      	strb	r6, [r3, r1]
1000067a:	1c49      	adds	r1, r1, #1
1000067c:	2800      	cmp	r0, #0
1000067e:	d1f7      	bne.n	10000670 <_printf_int_hex+0x28>
10000680:	7820      	ldrb	r0, [r4, #0]
10000682:	2300      	movs	r3, #0
10000684:	0700      	lsls	r0, r0, #28
10000686:	d504      	bpl.n	10000692 <_printf_int_hex+0x4a>
10000688:	2d70      	cmp	r5, #112	@ 0x70
1000068a:	d002      	beq.n	10000692 <_printf_int_hex+0x4a>
1000068c:	b109      	cbz	r1, 10000692 <_printf_int_hex+0x4a>
1000068e:	2302      	movs	r3, #2
10000690:	3211      	adds	r2, #17
10000692:	4620      	mov	r0, r4
10000694:	e8bd 4070 	ldmia.w	sp!, {r4, r5, r6, lr}
10000698:	f000 b8ac 	b.w	100007f4 <_printf_int_common>
1000069c:	000045ec 	.word	0x000045ec

100006a0 <puts>:
100006a0:	b510      	push	{r4, lr}
100006a2:	4604      	mov	r4, r0
100006a4:	e003      	b.n	100006ae <puts+0xe>
100006a6:	f004 fab7 	bl	10004c18 <fputc>
100006aa:	1c40      	adds	r0, r0, #1
100006ac:	d009      	beq.n	100006c2 <puts+0x22>
100006ae:	f814 0b01 	ldrb.w	r0, [r4], #1
100006b2:	4905      	ldr	r1, [pc, #20]	@ (100006c8 <puts+0x28>)
100006b4:	2800      	cmp	r0, #0
100006b6:	d1f6      	bne.n	100006a6 <puts+0x6>
100006b8:	e8bd 4010 	ldmia.w	sp!, {r4, lr}
100006bc:	200a      	movs	r0, #10
100006be:	f004 baab 	b.w	10004c18 <fputc>
100006c2:	f04f 30ff 	mov.w	r0, #4294967295
100006c6:	bd10      	pop	{r4, pc}
100006c8:	3800007c 	.word	0x3800007c

100006cc <memcmp>:
100006cc:	ea40 0301 	orr.w	r3, r0, r1
100006d0:	b510      	push	{r4, lr}
100006d2:	079b      	lsls	r3, r3, #30
100006d4:	d10f      	bne.n	100006f6 <memcmp+0x2a>
100006d6:	2a04      	cmp	r2, #4
100006d8:	d30d      	bcc.n	100006f6 <memcmp+0x2a>
100006da:	c810      	ldmia	r0!, {r4}
100006dc:	c908      	ldmia	r1!, {r3}
100006de:	1f12      	subs	r2, r2, #4
100006e0:	429c      	cmp	r4, r3
100006e2:	d0f8      	beq.n	100006d6 <memcmp+0xa>
100006e4:	ba20      	rev	r0, r4
100006e6:	ba19      	rev	r1, r3
100006e8:	4288      	cmp	r0, r1
100006ea:	d901      	bls.n	100006f0 <memcmp+0x24>
100006ec:	2001      	movs	r0, #1
100006ee:	bd10      	pop	{r4, pc}
100006f0:	f04f 30ff 	mov.w	r0, #4294967295
100006f4:	bd10      	pop	{r4, pc}
100006f6:	b11a      	cbz	r2, 10000700 <memcmp+0x34>
100006f8:	07d3      	lsls	r3, r2, #31
100006fa:	d003      	beq.n	10000704 <memcmp+0x38>
100006fc:	1c52      	adds	r2, r2, #1
100006fe:	e007      	b.n	10000710 <memcmp+0x44>
10000700:	2000      	movs	r0, #0
10000702:	bd10      	pop	{r4, pc}
10000704:	f810 3b01 	ldrb.w	r3, [r0], #1
10000708:	f811 4b01 	ldrb.w	r4, [r1], #1
1000070c:	1b1b      	subs	r3, r3, r4
1000070e:	d107      	bne.n	10000720 <memcmp+0x54>
10000710:	f810 3b01 	ldrb.w	r3, [r0], #1
10000714:	f811 4b01 	ldrb.w	r4, [r1], #1
10000718:	1b1b      	subs	r3, r3, r4
1000071a:	d101      	bne.n	10000720 <memcmp+0x54>
1000071c:	1e92      	subs	r2, r2, #2
1000071e:	d1f1      	bne.n	10000704 <memcmp+0x38>
10000720:	4618      	mov	r0, r3
10000722:	bd10      	pop	{r4, pc}

10000724 <__aeabi_memclr4>:
10000724:	f04f 0200 	mov.w	r2, #0

10000728 <_memset_w>:
10000728:	b500      	push	{lr}
1000072a:	4613      	mov	r3, r2
1000072c:	4694      	mov	ip, r2
1000072e:	4696      	mov	lr, r2
10000730:	3920      	subs	r1, #32
10000732:	bf22      	ittt	cs
10000734:	e8a0 500c 	stmiacs.w	r0!, {r2, r3, ip, lr}
10000738:	e8a0 500c 	stmiacs.w	r0!, {r2, r3, ip, lr}
1000073c:	f1b1 0120 	subscs.w	r1, r1, #32
10000740:	f4bf aff7 	bcs.w	10000732 <_memset_w+0xa>
10000744:	0709      	lsls	r1, r1, #28
10000746:	bf28      	it	cs
10000748:	e8a0 500c 	stmiacs.w	r0!, {r2, r3, ip, lr}
1000074c:	bf48      	it	mi
1000074e:	c00c      	stmiami	r0!, {r2, r3}
10000750:	f85d eb04 	ldr.w	lr, [sp], #4
10000754:	0089      	lsls	r1, r1, #2
10000756:	bf28      	it	cs
10000758:	f840 2b04 	strcs.w	r2, [r0], #4
1000075c:	bf08      	it	eq
1000075e:	4770      	bxeq	lr
10000760:	bf48      	it	mi
10000762:	f820 2b02 	strhmi.w	r2, [r0], #2
10000766:	f011 4f80 	tst.w	r1, #1073741824	@ 0x40000000
1000076a:	bf18      	it	ne
1000076c:	f800 2b01 	strbne.w	r2, [r0], #1
10000770:	4770      	bx	lr
10000772:	0000      	movs	r0, r0
10000774:	0000      	movs	r0, r0
	...

10000778 <strcmp>:
10000778:	b430      	push	{r4, r5}
1000077a:	f04f 3c01 	mov.w	ip, #16843009	@ 0x1010101
1000077e:	f850 2b04 	ldr.w	r2, [r0], #4
10000782:	f851 3b04 	ldr.w	r3, [r1], #4
10000786:	facc f452 	uqsub8	r4, ip, r2
1000078a:	1ad5      	subs	r5, r2, r3
1000078c:	d120      	bne.n	100007d0 <strcmp+0x58>
1000078e:	b9fc      	cbnz	r4, 100007d0 <strcmp+0x58>
10000790:	f850 2b04 	ldr.w	r2, [r0], #4
10000794:	f851 3b04 	ldr.w	r3, [r1], #4
10000798:	facc f452 	uqsub8	r4, ip, r2
1000079c:	1ad5      	subs	r5, r2, r3
1000079e:	d117      	bne.n	100007d0 <strcmp+0x58>
100007a0:	b9b4      	cbnz	r4, 100007d0 <strcmp+0x58>
100007a2:	f850 2b04 	ldr.w	r2, [r0], #4
100007a6:	f851 3b04 	ldr.w	r3, [r1], #4
100007aa:	facc f452 	uqsub8	r4, ip, r2
100007ae:	1ad5      	subs	r5, r2, r3
100007b0:	d10e      	bne.n	100007d0 <strcmp+0x58>
100007b2:	b96c      	cbnz	r4, 100007d0 <strcmp+0x58>
100007b4:	f850 2b04 	ldr.w	r2, [r0], #4
100007b8:	f851 3b04 	ldr.w	r3, [r1], #4
100007bc:	facc f452 	uqsub8	r4, ip, r2
100007c0:	1ad5      	subs	r5, r2, r3
100007c2:	d105      	bne.n	100007d0 <strcmp+0x58>
100007c4:	2c00      	cmp	r4, #0
100007c6:	d0da      	beq.n	1000077e <strcmp+0x6>
100007c8:	bc30      	pop	{r4, r5}
100007ca:	f04f 0000 	mov.w	r0, #0
100007ce:	4770      	bx	lr
100007d0:	ba29      	rev	r1, r5
100007d2:	fab1 f181 	clz	r1, r1
100007d6:	f011 0118 	ands.w	r1, r1, #24
100007da:	f1d1 0020 	rsbs	r0, r1, #32
100007de:	4084      	lsls	r4, r0
100007e0:	d1f2      	bne.n	100007c8 <strcmp+0x50>
100007e2:	40ca      	lsrs	r2, r1
100007e4:	40cb      	lsrs	r3, r1
100007e6:	f012 02ff 	ands.w	r2, r2, #255	@ 0xff
100007ea:	f013 03ff 	ands.w	r3, r3, #255	@ 0xff
100007ee:	bc30      	pop	{r4, r5}
100007f0:	1ad0      	subs	r0, r2, r3
100007f2:	4770      	bx	lr

100007f4 <_printf_int_common>:
100007f4:	e92d 47f0 	stmdb	sp!, {r4, r5, r6, r7, r8, r9, sl, lr}
100007f8:	460d      	mov	r5, r1
100007fa:	4699      	mov	r9, r3
100007fc:	4692      	mov	sl, r2
100007fe:	4604      	mov	r4, r0
10000800:	f100 0824 	add.w	r8, r0, #36	@ 0x24
10000804:	6801      	ldr	r1, [r0, #0]
10000806:	0688      	lsls	r0, r1, #26
10000808:	d504      	bpl.n	10000814 <_printf_int_common+0x20>
1000080a:	69e0      	ldr	r0, [r4, #28]
1000080c:	f021 0110 	bic.w	r1, r1, #16
10000810:	6021      	str	r1, [r4, #0]
10000812:	e000      	b.n	10000816 <_printf_int_common+0x22>
10000814:	2001      	movs	r0, #1
10000816:	42a8      	cmp	r0, r5
10000818:	dd01      	ble.n	1000081e <_printf_int_common+0x2a>
1000081a:	1b47      	subs	r7, r0, r5
1000081c:	e000      	b.n	10000820 <_printf_int_common+0x2c>
1000081e:	2700      	movs	r7, #0
10000820:	69a1      	ldr	r1, [r4, #24]
10000822:	197a      	adds	r2, r7, r5
10000824:	eb02 0009 	add.w	r0, r2, r9
10000828:	1a08      	subs	r0, r1, r0
1000082a:	61a0      	str	r0, [r4, #24]
1000082c:	7820      	ldrb	r0, [r4, #0]
1000082e:	06c0      	lsls	r0, r0, #27
10000830:	d402      	bmi.n	10000838 <_printf_int_common+0x44>
10000832:	4620      	mov	r0, r4
10000834:	f3af 8000 	nop.w
10000838:	2600      	movs	r6, #0
1000083a:	e008      	b.n	1000084e <_printf_int_common+0x5a>
1000083c:	e9d4 2101 	ldrd	r2, r1, [r4, #4]
10000840:	f81a 0006 	ldrb.w	r0, [sl, r6]
10000844:	4790      	blx	r2
10000846:	6a20      	ldr	r0, [r4, #32]
10000848:	1c40      	adds	r0, r0, #1
1000084a:	1c76      	adds	r6, r6, #1
1000084c:	6220      	str	r0, [r4, #32]
1000084e:	454e      	cmp	r6, r9
10000850:	dbf4      	blt.n	1000083c <_printf_int_common+0x48>
10000852:	7820      	ldrb	r0, [r4, #0]
10000854:	06c0      	lsls	r0, r0, #27
10000856:	d50a      	bpl.n	1000086e <_printf_int_common+0x7a>
10000858:	4620      	mov	r0, r4
1000085a:	f3af 8000 	nop.w
1000085e:	e006      	b.n	1000086e <_printf_int_common+0x7a>
10000860:	e9d4 2101 	ldrd	r2, r1, [r4, #4]
10000864:	2030      	movs	r0, #48	@ 0x30
10000866:	4790      	blx	r2
10000868:	6a20      	ldr	r0, [r4, #32]
1000086a:	1c40      	adds	r0, r0, #1
1000086c:	6220      	str	r0, [r4, #32]
1000086e:	1e38      	subs	r0, r7, #0
10000870:	f1a7 0701 	sub.w	r7, r7, #1
10000874:	dcf4      	bgt.n	10000860 <_printf_int_common+0x6c>
10000876:	e007      	b.n	10000888 <_printf_int_common+0x94>
10000878:	e9d4 2101 	ldrd	r2, r1, [r4, #4]
1000087c:	f818 0005 	ldrb.w	r0, [r8, r5]
10000880:	4790      	blx	r2
10000882:	6a20      	ldr	r0, [r4, #32]
10000884:	1c40      	adds	r0, r0, #1
10000886:	6220      	str	r0, [r4, #32]
10000888:	1e28      	subs	r0, r5, #0
1000088a:	f1a5 0501 	sub.w	r5, r5, #1
1000088e:	dcf3      	bgt.n	10000878 <_printf_int_common+0x84>
10000890:	4620      	mov	r0, r4
10000892:	f3af 8000 	nop.w
10000896:	7820      	ldrb	r0, [r4, #0]
10000898:	0600      	lsls	r0, r0, #24
1000089a:	d502      	bpl.n	100008a2 <_printf_int_common+0xae>
1000089c:	2002      	movs	r0, #2
1000089e:	e8bd 87f0 	ldmia.w	sp!, {r4, r5, r6, r7, r8, r9, sl, pc}
100008a2:	2001      	movs	r0, #1
100008a4:	e7fb      	b.n	1000089e <_printf_int_common+0xaa>

100008a6 <_printf_cs_common>:
100008a6:	b510      	push	{r4, lr}
100008a8:	6943      	ldr	r3, [r0, #20]
100008aa:	b113      	cbz	r3, 100008b2 <_printf_cs_common+0xc>
100008ac:	f3af 8000 	nop.w
100008b0:	e001      	b.n	100008b6 <_printf_cs_common+0x10>
100008b2:	f7ff fe63 	bl	1000057c <_printf_str>
100008b6:	2001      	movs	r0, #1
100008b8:	bd10      	pop	{r4, pc}

100008ba <_printf_char>:
100008ba:	7812      	ldrb	r2, [r2, #0]
100008bc:	f100 0124 	add.w	r1, r0, #36	@ 0x24
100008c0:	700a      	strb	r2, [r1, #0]
100008c2:	2200      	movs	r2, #0
100008c4:	704a      	strb	r2, [r1, #1]
100008c6:	2201      	movs	r2, #1
100008c8:	e7ed      	b.n	100008a6 <_printf_cs_common>

100008ca <_printf_string>:
100008ca:	6811      	ldr	r1, [r2, #0]
100008cc:	f04f 32ff 	mov.w	r2, #4294967295
100008d0:	e7e9      	b.n	100008a6 <_printf_cs_common>
	...

100008d4 <_printf_char_file>:
100008d4:	4b07      	ldr	r3, [pc, #28]	@ (100008f4 <_printf_char_file+0x20>)
100008d6:	b570      	push	{r4, r5, r6, lr}
100008d8:	460d      	mov	r5, r1
100008da:	447b      	add	r3, pc
100008dc:	f000 f811 	bl	10000902 <_printf_char_common>
100008e0:	4604      	mov	r4, r0
100008e2:	4628      	mov	r0, r5
100008e4:	f000 f820 	bl	10000928 <ferror>
100008e8:	b110      	cbz	r0, 100008f0 <_printf_char_file+0x1c>
100008ea:	f04f 30ff 	mov.w	r0, #4294967295
100008ee:	bd70      	pop	{r4, r5, r6, pc}
100008f0:	4620      	mov	r0, r4
100008f2:	bd70      	pop	{r4, r5, r6, pc}
100008f4:	0000433b 	.word	0x0000433b

100008f8 <_printf_input_char>:
100008f8:	6901      	ldr	r1, [r0, #16]
100008fa:	1c4a      	adds	r2, r1, #1
100008fc:	6102      	str	r2, [r0, #16]
100008fe:	7808      	ldrb	r0, [r1, #0]
10000900:	4770      	bx	lr

10000902 <_printf_char_common>:
10000902:	b500      	push	{lr}
10000904:	b08f      	sub	sp, #60	@ 0x3c
10000906:	e9cd 3101 	strd	r3, r1, [sp, #4]
1000090a:	2100      	movs	r1, #0
1000090c:	9105      	str	r1, [sp, #20]
1000090e:	4905      	ldr	r1, [pc, #20]	@ (10000924 <_printf_char_common+0x22>)
10000910:	4479      	add	r1, pc
10000912:	e9cd 1003 	strd	r1, r0, [sp, #12]
10000916:	4611      	mov	r1, r2
10000918:	4668      	mov	r0, sp
1000091a:	f7ff fdfb 	bl	10000514 <__printf>
1000091e:	b00f      	add	sp, #60	@ 0x3c
10000920:	bd00      	pop	{pc}
10000922:	0000      	.short	0x0000
10000924:	ffffffe5 	.word	0xffffffe5

10000928 <ferror>:
10000928:	7b00      	ldrb	r0, [r0, #12]
1000092a:	f000 0080 	and.w	r0, r0, #128	@ 0x80
1000092e:	4770      	bx	lr

10000930 <__flsbuf>:
10000930:	e92d 5ff0 	stmdb	sp!, {r4, r5, r6, r7, r8, r9, sl, fp, ip, lr}
10000934:	4605      	mov	r5, r0
10000936:	4617      	mov	r7, r2
10000938:	460c      	mov	r4, r1
1000093a:	68c8      	ldr	r0, [r1, #12]
1000093c:	f420 1020 	bic.w	r0, r0, #2621440	@ 0x280000
10000940:	f440 0080 	orr.w	r0, r0, #4194304	@ 0x400000
10000944:	60c8      	str	r0, [r1, #12]
10000946:	0680      	lsls	r0, r0, #26
10000948:	d502      	bpl.n	10000950 <__flsbuf+0x20>
1000094a:	4608      	mov	r0, r1
1000094c:	f000 fa5b 	bl	10000e06 <_deferredlazyseek>
10000950:	68e0      	ldr	r0, [r4, #12]
10000952:	f241 0182 	movw	r1, #4226	@ 0x1082
10000956:	f04f 3aff 	mov.w	sl, #4294967295
1000095a:	4001      	ands	r1, r0
1000095c:	2902      	cmp	r1, #2
1000095e:	d003      	beq.n	10000968 <__flsbuf+0x38>
10000960:	4620      	mov	r0, r4
10000962:	f000 f9ed 	bl	10000d40 <_seterr>
10000966:	e0b9      	b.n	10000adc <__flsbuf+0x1ac>
10000968:	f400 4120 	and.w	r1, r0, #40960	@ 0xa000
1000096c:	f5b1 4f00 	cmp.w	r1, #32768	@ 0x8000
10000970:	d10f      	bne.n	10000992 <__flsbuf+0x62>
10000972:	03c0      	lsls	r0, r0, #15
10000974:	d506      	bpl.n	10000984 <__flsbuf+0x54>
10000976:	6861      	ldr	r1, [r4, #4]
10000978:	6ae0      	ldr	r0, [r4, #44]	@ 0x2c
1000097a:	4288      	cmp	r0, r1
1000097c:	d800      	bhi.n	10000980 <__flsbuf+0x50>
1000097e:	4608      	mov	r0, r1
10000980:	6060      	str	r0, [r4, #4]
10000982:	e006      	b.n	10000992 <__flsbuf+0x62>
10000984:	6920      	ldr	r0, [r4, #16]
10000986:	62e0      	str	r0, [r4, #44]	@ 0x2c
10000988:	6060      	str	r0, [r4, #4]
1000098a:	6960      	ldr	r0, [r4, #20]
1000098c:	f003 fd3a 	bl	10004404 <_sys_flen>
10000990:	61a0      	str	r0, [r4, #24]
10000992:	68a0      	ldr	r0, [r4, #8]
10000994:	2200      	movs	r2, #0
10000996:	b2ee      	uxtb	r6, r5
10000998:	2800      	cmp	r0, #0
1000099a:	da0d      	bge.n	100009b8 <__flsbuf+0x88>
1000099c:	68e1      	ldr	r1, [r4, #12]
1000099e:	058b      	lsls	r3, r1, #22
100009a0:	d40a      	bmi.n	100009b8 <__flsbuf+0x88>
100009a2:	43c0      	mvns	r0, r0
100009a4:	60a0      	str	r0, [r4, #8]
100009a6:	f441 3090 	orr.w	r0, r1, #73728	@ 0x12000
100009aa:	6022      	str	r2, [r4, #0]
100009ac:	60e0      	str	r0, [r4, #12]
100009ae:	6860      	ldr	r0, [r4, #4]
100009b0:	1c41      	adds	r1, r0, #1
100009b2:	6061      	str	r1, [r4, #4]
100009b4:	7006      	strb	r6, [r0, #0]
100009b6:	e0aa      	b.n	10000b0e <__flsbuf+0x1de>
100009b8:	68e0      	ldr	r0, [r4, #12]
100009ba:	4691      	mov	r9, r2
100009bc:	6022      	str	r2, [r4, #0]
100009be:	f440 5000 	orr.w	r0, r0, #8192	@ 0x2000
100009c2:	60e0      	str	r0, [r4, #12]
100009c4:	6920      	ldr	r0, [r4, #16]
100009c6:	bb78      	cbnz	r0, 10000a28 <__flsbuf+0xf8>
100009c8:	6960      	ldr	r0, [r4, #20]
100009ca:	f003 fd1d 	bl	10004408 <_sys_istty>
100009ce:	f104 0524 	add.w	r5, r4, #36	@ 0x24
100009d2:	f04f 0801 	mov.w	r8, #1
100009d6:	b1a8      	cbz	r0, 10000a04 <__flsbuf+0xd4>
100009d8:	89a0      	ldrh	r0, [r4, #12]
100009da:	f410 7f40 	tst.w	r0, #768	@ 0x300
100009de:	d008      	beq.n	100009f2 <__flsbuf+0xc2>
100009e0:	69e0      	ldr	r0, [r4, #28]
100009e2:	f000 f933 	bl	10000c4c <malloc>
100009e6:	6120      	str	r0, [r4, #16]
100009e8:	b118      	cbz	r0, 100009f2 <__flsbuf+0xc2>
100009ea:	68e0      	ldr	r0, [r4, #12]
100009ec:	f440 6000 	orr.w	r0, r0, #2048	@ 0x800
100009f0:	e017      	b.n	10000a22 <__flsbuf+0xf2>
100009f2:	f8c4 801c 	str.w	r8, [r4, #28]
100009f6:	6125      	str	r5, [r4, #16]
100009f8:	68e0      	ldr	r0, [r4, #12]
100009fa:	f420 7040 	bic.w	r0, r0, #768	@ 0x300
100009fe:	f440 6080 	orr.w	r0, r0, #1024	@ 0x400
10000a02:	e00e      	b.n	10000a22 <__flsbuf+0xf2>
10000a04:	69e0      	ldr	r0, [r4, #28]
10000a06:	f000 f921 	bl	10000c4c <malloc>
10000a0a:	2800      	cmp	r0, #0
10000a0c:	6120      	str	r0, [r4, #16]
10000a0e:	d0f0      	beq.n	100009f2 <__flsbuf+0xc2>
10000a10:	68e0      	ldr	r0, [r4, #12]
10000a12:	f440 6000 	orr.w	r0, r0, #2048	@ 0x800
10000a16:	f410 7f40 	tst.w	r0, #768	@ 0x300
10000a1a:	60e0      	str	r0, [r4, #12]
10000a1c:	d102      	bne.n	10000a24 <__flsbuf+0xf4>
10000a1e:	f440 7080 	orr.w	r0, r0, #256	@ 0x100
10000a22:	60e0      	str	r0, [r4, #12]
10000a24:	6920      	ldr	r0, [r4, #16]
10000a26:	6060      	str	r0, [r4, #4]
10000a28:	68e0      	ldr	r0, [r4, #12]
10000a2a:	6925      	ldr	r5, [r4, #16]
10000a2c:	f06f 0b01 	mvn.w	fp, #1
10000a30:	05c1      	lsls	r1, r0, #23
10000a32:	d51e      	bpl.n	10000a72 <__flsbuf+0x142>
10000a34:	6861      	ldr	r1, [r4, #4]
10000a36:	6ae0      	ldr	r0, [r4, #44]	@ 0x2c
10000a38:	4288      	cmp	r0, r1
10000a3a:	d800      	bhi.n	10000a3e <__flsbuf+0x10e>
10000a3c:	4608      	mov	r0, r1
10000a3e:	1b41      	subs	r1, r0, r5
10000a40:	d004      	beq.n	10000a4c <__flsbuf+0x11c>
10000a42:	4622      	mov	r2, r4
10000a44:	4628      	mov	r0, r5
10000a46:	f000 f985 	bl	10000d54 <_writebuf>
10000a4a:	bbe8      	cbnz	r0, 10000ac8 <__flsbuf+0x198>
10000a4c:	b11f      	cbz	r7, 10000a56 <__flsbuf+0x126>
10000a4e:	62e5      	str	r5, [r4, #44]	@ 0x2c
10000a50:	e9c4 5901 	strd	r5, r9, [r4, #4]
10000a54:	e059      	b.n	10000b0a <__flsbuf+0x1da>
10000a56:	1c68      	adds	r0, r5, #1
10000a58:	62e0      	str	r0, [r4, #44]	@ 0x2c
10000a5a:	6060      	str	r0, [r4, #4]
10000a5c:	69e0      	ldr	r0, [r4, #28]
10000a5e:	1e40      	subs	r0, r0, #1
10000a60:	60a0      	str	r0, [r4, #8]
10000a62:	68e0      	ldr	r0, [r4, #12]
10000a64:	f440 3080 	orr.w	r0, r0, #65536	@ 0x10000
10000a68:	60e0      	str	r0, [r4, #12]
10000a6a:	4630      	mov	r0, r6
10000a6c:	702e      	strb	r6, [r5, #0]
10000a6e:	e8bd 9ff0 	ldmia.w	sp!, {r4, r5, r6, r7, r8, r9, sl, fp, ip, pc}
10000a72:	b117      	cbz	r7, 10000a7a <__flsbuf+0x14a>
10000a74:	f400 3280 	and.w	r2, r0, #65536	@ 0x10000
10000a78:	e00a      	b.n	10000a90 <__flsbuf+0x160>
10000a7a:	6860      	ldr	r0, [r4, #4]
10000a7c:	1c41      	adds	r1, r0, #1
10000a7e:	6061      	str	r1, [r4, #4]
10000a80:	7006      	strb	r6, [r0, #0]
10000a82:	68e0      	ldr	r0, [r4, #12]
10000a84:	2e0a      	cmp	r6, #10
10000a86:	f440 3080 	orr.w	r0, r0, #65536	@ 0x10000
10000a8a:	60e0      	str	r0, [r4, #12]
10000a8c:	d006      	beq.n	10000a9c <__flsbuf+0x16c>
10000a8e:	2200      	movs	r2, #0
10000a90:	6ae1      	ldr	r1, [r4, #44]	@ 0x2c
10000a92:	6860      	ldr	r0, [r4, #4]
10000a94:	4281      	cmp	r1, r0
10000a96:	d903      	bls.n	10000aa0 <__flsbuf+0x170>
10000a98:	460b      	mov	r3, r1
10000a9a:	e002      	b.n	10000aa2 <__flsbuf+0x172>
10000a9c:	2201      	movs	r2, #1
10000a9e:	e7f7      	b.n	10000a90 <__flsbuf+0x160>
10000aa0:	4603      	mov	r3, r0
10000aa2:	f8b4 c00c 	ldrh.w	ip, [r4, #12]
10000aa6:	1b5b      	subs	r3, r3, r5
10000aa8:	ea5f 5c4c 	movs.w	ip, ip, lsl #21
10000aac:	d404      	bmi.n	10000ab8 <__flsbuf+0x188>
10000aae:	f8d4 c01c 	ldr.w	ip, [r4, #28]
10000ab2:	459c      	cmp	ip, r3
10000ab4:	dd00      	ble.n	10000ab8 <__flsbuf+0x188>
10000ab6:	b302      	cbz	r2, 10000afa <__flsbuf+0x1ca>
10000ab8:	4281      	cmp	r1, r0
10000aba:	d800      	bhi.n	10000abe <__flsbuf+0x18e>
10000abc:	4601      	mov	r1, r0
10000abe:	2b00      	cmp	r3, #0
10000ac0:	eba1 0800 	sub.w	r8, r1, r0
10000ac4:	62e5      	str	r5, [r4, #44]	@ 0x2c
10000ac6:	e000      	b.n	10000aca <__flsbuf+0x19a>
10000ac8:	e008      	b.n	10000adc <__flsbuf+0x1ac>
10000aca:	e9c4 5901 	strd	r5, r9, [r4, #4]
10000ace:	dd07      	ble.n	10000ae0 <__flsbuf+0x1b0>
10000ad0:	4622      	mov	r2, r4
10000ad2:	4619      	mov	r1, r3
10000ad4:	4628      	mov	r0, r5
10000ad6:	f000 f93d 	bl	10000d54 <_writebuf>
10000ada:	b108      	cbz	r0, 10000ae0 <__flsbuf+0x1b0>
10000adc:	4650      	mov	r0, sl
10000ade:	e7c6      	b.n	10000a6e <__flsbuf+0x13e>
10000ae0:	f1b8 0f00 	cmp.w	r8, #0
10000ae4:	d009      	beq.n	10000afa <__flsbuf+0x1ca>
10000ae6:	69a1      	ldr	r1, [r4, #24]
10000ae8:	62e5      	str	r5, [r4, #44]	@ 0x2c
10000aea:	6065      	str	r5, [r4, #4]
10000aec:	eba1 0008 	sub.w	r0, r1, r8
10000af0:	61a0      	str	r0, [r4, #24]
10000af2:	68e0      	ldr	r0, [r4, #12]
10000af4:	f040 0010 	orr.w	r0, r0, #16
10000af8:	60e0      	str	r0, [r4, #12]
10000afa:	b147      	cbz	r7, 10000b0e <__flsbuf+0x1de>
10000afc:	6861      	ldr	r1, [r4, #4]
10000afe:	69a0      	ldr	r0, [r4, #24]
10000b00:	62e5      	str	r5, [r4, #44]	@ 0x2c
10000b02:	1b49      	subs	r1, r1, r5
10000b04:	4408      	add	r0, r1
10000b06:	6065      	str	r5, [r4, #4]
10000b08:	61a0      	str	r0, [r4, #24]
10000b0a:	4658      	mov	r0, fp
10000b0c:	e7af      	b.n	10000a6e <__flsbuf+0x13e>
10000b0e:	4630      	mov	r0, r6
10000b10:	e7ad      	b.n	10000a6e <__flsbuf+0x13e>
	...

10000b14 <_initio>:
10000b14:	b510      	push	{r4, lr}
10000b16:	4842      	ldr	r0, [pc, #264]	@ (10000c20 <_terminateio+0x3a>)
10000b18:	2154      	movs	r1, #84	@ 0x54
10000b1a:	f7ff fe03 	bl	10000724 <__aeabi_memclr4>
10000b1e:	4841      	ldr	r0, [pc, #260]	@ (10000c24 <_terminateio+0x3e>)
10000b20:	2154      	movs	r1, #84	@ 0x54
10000b22:	f7ff fdff 	bl	10000724 <__aeabi_memclr4>
10000b26:	4840      	ldr	r0, [pc, #256]	@ (10000c28 <_terminateio+0x42>)
10000b28:	2154      	movs	r1, #84	@ 0x54
10000b2a:	f7ff fdfb 	bl	10000724 <__aeabi_memclr4>
10000b2e:	493f      	ldr	r1, [pc, #252]	@ (10000c2c <_terminateio+0x46>)
10000b30:	483b      	ldr	r0, [pc, #236]	@ (10000c20 <_terminateio+0x3a>)
10000b32:	4a3c      	ldr	r2, [pc, #240]	@ (10000c24 <_terminateio+0x3e>)
10000b34:	4b3f      	ldr	r3, [pc, #252]	@ (10000c34 <_terminateio+0x4e>)
10000b36:	6008      	str	r0, [r1, #0]
10000b38:	493d      	ldr	r1, [pc, #244]	@ (10000c30 <_terminateio+0x4a>)
10000b3a:	600a      	str	r2, [r1, #0]
10000b3c:	493a      	ldr	r1, [pc, #232]	@ (10000c28 <_terminateio+0x42>)
10000b3e:	6019      	str	r1, [r3, #0]
10000b40:	1c53      	adds	r3, r2, #1
10000b42:	6503      	str	r3, [r0, #80]	@ 0x50
10000b44:	1c48      	adds	r0, r1, #1
10000b46:	6510      	str	r0, [r2, #80]	@ 0x50
10000b48:	2001      	movs	r0, #1
10000b4a:	6508      	str	r0, [r1, #80]	@ 0x50
10000b4c:	483b      	ldr	r0, [pc, #236]	@ (10000c3c <_terminateio+0x56>)
10000b4e:	4a34      	ldr	r2, [pc, #208]	@ (10000c20 <_terminateio+0x3a>)
10000b50:	a139      	add	r1, pc, #228	@ (adr r1, 10000c38 <_terminateio+0x52>)
10000b52:	4478      	add	r0, pc
10000b54:	f000 f978 	bl	10000e48 <freopen>
10000b58:	b920      	cbnz	r0, 10000b64 <_initio+0x50>
10000b5a:	4838      	ldr	r0, [pc, #224]	@ (10000c3c <_terminateio+0x56>)
10000b5c:	4478      	add	r0, pc
10000b5e:	380a      	subs	r0, #10
10000b60:	f000 fa19 	bl	10000f96 <__rt_SIGRTRED>
10000b64:	4837      	ldr	r0, [pc, #220]	@ (10000c44 <_terminateio+0x5e>)
10000b66:	4a2f      	ldr	r2, [pc, #188]	@ (10000c24 <_terminateio+0x3e>)
10000b68:	a135      	add	r1, pc, #212	@ (adr r1, 10000c40 <_terminateio+0x5a>)
10000b6a:	4478      	add	r0, pc
10000b6c:	f000 f96c 	bl	10000e48 <freopen>
10000b70:	b920      	cbnz	r0, 10000b7c <_initio+0x68>
10000b72:	4834      	ldr	r0, [pc, #208]	@ (10000c44 <_terminateio+0x5e>)
10000b74:	4478      	add	r0, pc
10000b76:	380a      	subs	r0, #10
10000b78:	f000 fa0d 	bl	10000f96 <__rt_SIGRTRED>
10000b7c:	4832      	ldr	r0, [pc, #200]	@ (10000c48 <_terminateio+0x62>)
10000b7e:	4a2a      	ldr	r2, [pc, #168]	@ (10000c28 <_terminateio+0x42>)
10000b80:	a12f      	add	r1, pc, #188	@ (adr r1, 10000c40 <_terminateio+0x5a>)
10000b82:	4478      	add	r0, pc
10000b84:	f000 f960 	bl	10000e48 <freopen>
10000b88:	b920      	cbnz	r0, 10000b94 <_initio+0x80>
10000b8a:	482f      	ldr	r0, [pc, #188]	@ (10000c48 <_terminateio+0x62>)
10000b8c:	4478      	add	r0, pc
10000b8e:	380a      	subs	r0, #10
10000b90:	f000 fa01 	bl	10000f96 <__rt_SIGRTRED>
10000b94:	2340      	movs	r3, #64	@ 0x40
10000b96:	4822      	ldr	r0, [pc, #136]	@ (10000c20 <_terminateio+0x3a>)
10000b98:	00dc      	lsls	r4, r3, #3
10000b9a:	2100      	movs	r1, #0
10000b9c:	4622      	mov	r2, r4
10000b9e:	f000 f8ab 	bl	10000cf8 <setvbuf>
10000ba2:	b120      	cbz	r0, 10000bae <_initio+0x9a>
10000ba4:	4825      	ldr	r0, [pc, #148]	@ (10000c3c <_terminateio+0x56>)
10000ba6:	4478      	add	r0, pc
10000ba8:	3854      	subs	r0, #84	@ 0x54
10000baa:	f000 f9f4 	bl	10000f96 <__rt_SIGRTRED>
10000bae:	481d      	ldr	r0, [pc, #116]	@ (10000c24 <_terminateio+0x3e>)
10000bb0:	4622      	mov	r2, r4
10000bb2:	2340      	movs	r3, #64	@ 0x40
10000bb4:	2100      	movs	r1, #0
10000bb6:	f000 f89f 	bl	10000cf8 <setvbuf>
10000bba:	b120      	cbz	r0, 10000bc6 <_initio+0xb2>
10000bbc:	4821      	ldr	r0, [pc, #132]	@ (10000c44 <_terminateio+0x5e>)
10000bbe:	4478      	add	r0, pc
10000bc0:	3854      	subs	r0, #84	@ 0x54
10000bc2:	f000 f9e8 	bl	10000f96 <__rt_SIGRTRED>
10000bc6:	4818      	ldr	r0, [pc, #96]	@ (10000c28 <_terminateio+0x42>)
10000bc8:	4622      	mov	r2, r4
10000bca:	2310      	movs	r3, #16
10000bcc:	2100      	movs	r1, #0
10000bce:	f000 f893 	bl	10000cf8 <setvbuf>
10000bd2:	2800      	cmp	r0, #0
10000bd4:	d006      	beq.n	10000be4 <_initio+0xd0>
10000bd6:	481c      	ldr	r0, [pc, #112]	@ (10000c48 <_terminateio+0x62>)
10000bd8:	4478      	add	r0, pc
10000bda:	e8bd 4010 	ldmia.w	sp!, {r4, lr}
10000bde:	3856      	subs	r0, #86	@ 0x56
10000be0:	f000 b9d9 	b.w	10000f96 <__rt_SIGRTRED>
10000be4:	bd10      	pop	{r4, pc}

10000be6 <_terminateio>:
10000be6:	4810      	ldr	r0, [pc, #64]	@ (10000c28 <_terminateio+0x42>)
10000be8:	b570      	push	{r4, r5, r6, lr}
10000bea:	6d00      	ldr	r0, [r0, #80]	@ 0x50
10000bec:	f020 0401 	bic.w	r4, r0, #1
10000bf0:	480b      	ldr	r0, [pc, #44]	@ (10000c20 <_terminateio+0x3a>)
10000bf2:	f000 f9a1 	bl	10000f38 <_fclose_internal>
10000bf6:	480b      	ldr	r0, [pc, #44]	@ (10000c24 <_terminateio+0x3e>)
10000bf8:	f000 f99e 	bl	10000f38 <_fclose_internal>
10000bfc:	480a      	ldr	r0, [pc, #40]	@ (10000c28 <_terminateio+0x42>)
10000bfe:	f000 f99b 	bl	10000f38 <_fclose_internal>
10000c02:	e009      	b.n	10000c18 <_terminateio+0x32>
10000c04:	6d20      	ldr	r0, [r4, #80]	@ 0x50
10000c06:	f020 0501 	bic.w	r5, r0, #1
10000c0a:	4620      	mov	r0, r4
10000c0c:	f000 f994 	bl	10000f38 <_fclose_internal>
10000c10:	4620      	mov	r0, r4
10000c12:	f000 f84a 	bl	10000caa <free>
10000c16:	462c      	mov	r4, r5
10000c18:	2c00      	cmp	r4, #0
10000c1a:	d1f3      	bne.n	10000c04 <_terminateio+0x1e>
10000c1c:	bd70      	pop	{r4, r5, r6, pc}
10000c1e:	0000      	.short	0x0000
10000c20:	38000028 	.word	0x38000028
10000c24:	3800007c 	.word	0x3800007c
10000c28:	380000d0 	.word	0x380000d0
10000c2c:	38000000 	.word	0x38000000
10000c30:	38000004 	.word	0x38000004
10000c34:	38000008 	.word	0x38000008
10000c38:	00000072 	.word	0x00000072
10000c3c:	00005672 	.word	0x00005672
10000c40:	00000077 	.word	0x00000077
10000c44:	00005661 	.word	0x00005661
10000c48:	0000563a 	.word	0x0000563a

10000c4c <malloc>:
10000c4c:	b570      	push	{r4, r5, r6, lr}
10000c4e:	4606      	mov	r6, r0
10000c50:	f000 f9a8 	bl	10000fa4 <__rt_heap_descriptor>
10000c54:	6805      	ldr	r5, [r0, #0]
10000c56:	f106 000b 	add.w	r0, r6, #11
10000c5a:	f020 0407 	bic.w	r4, r0, #7
10000c5e:	42b4      	cmp	r4, r6
10000c60:	bf9c      	itt	ls
10000c62:	2000      	movls	r0, #0
10000c64:	bd70      	popls	{r4, r5, r6, pc}
10000c66:	462b      	mov	r3, r5
10000c68:	686a      	ldr	r2, [r5, #4]
10000c6a:	b1ba      	cbz	r2, 10000c9c <malloc+0x50>
10000c6c:	6810      	ldr	r0, [r2, #0]
10000c6e:	42a0      	cmp	r0, r4
10000c70:	d310      	bcc.n	10000c94 <malloc+0x48>
10000c72:	f104 0108 	add.w	r1, r4, #8
10000c76:	4288      	cmp	r0, r1
10000c78:	bf3c      	itt	cc
10000c7a:	6850      	ldrcc	r0, [r2, #4]
10000c7c:	6058      	strcc	r0, [r3, #4]
10000c7e:	d307      	bcc.n	10000c90 <malloc+0x44>
10000c80:	6851      	ldr	r1, [r2, #4]
10000c82:	1910      	adds	r0, r2, r4
10000c84:	6041      	str	r1, [r0, #4]
10000c86:	6811      	ldr	r1, [r2, #0]
10000c88:	1b09      	subs	r1, r1, r4
10000c8a:	6001      	str	r1, [r0, #0]
10000c8c:	6058      	str	r0, [r3, #4]
10000c8e:	6014      	str	r4, [r2, #0]
10000c90:	1d10      	adds	r0, r2, #4
10000c92:	bd70      	pop	{r4, r5, r6, pc}
10000c94:	4613      	mov	r3, r2
10000c96:	6852      	ldr	r2, [r2, #4]
10000c98:	2a00      	cmp	r2, #0
10000c9a:	d1e7      	bne.n	10000c6c <malloc+0x20>
10000c9c:	4621      	mov	r1, r4
10000c9e:	4628      	mov	r0, r5
10000ca0:	f000 f988 	bl	10000fb4 <__Heap_Full>
10000ca4:	2800      	cmp	r0, #0
10000ca6:	d1de      	bne.n	10000c66 <malloc+0x1a>
10000ca8:	bd70      	pop	{r4, r5, r6, pc}

10000caa <free>:
10000caa:	b570      	push	{r4, r5, r6, lr}
10000cac:	4604      	mov	r4, r0
10000cae:	1f05      	subs	r5, r0, #4
10000cb0:	f000 f978 	bl	10000fa4 <__rt_heap_descriptor>
10000cb4:	6800      	ldr	r0, [r0, #0]
10000cb6:	2c00      	cmp	r4, #0
10000cb8:	bf14      	ite	ne
10000cba:	6844      	ldrne	r4, [r0, #4]
10000cbc:	bd70      	popeq	{r4, r5, r6, pc}
10000cbe:	2c00      	cmp	r4, #0
10000cc0:	bf18      	it	ne
10000cc2:	42ac      	cmpne	r4, r5
10000cc4:	bf3c      	itt	cc
10000cc6:	4620      	movcc	r0, r4
10000cc8:	6864      	ldrcc	r4, [r4, #4]
10000cca:	d3f8      	bcc.n	10000cbe <free+0x14>
10000ccc:	6801      	ldr	r1, [r0, #0]
10000cce:	180a      	adds	r2, r1, r0
10000cd0:	42aa      	cmp	r2, r5
10000cd2:	bf18      	it	ne
10000cd4:	6045      	strne	r5, [r0, #4]
10000cd6:	d103      	bne.n	10000ce0 <free+0x36>
10000cd8:	682a      	ldr	r2, [r5, #0]
10000cda:	4605      	mov	r5, r0
10000cdc:	4411      	add	r1, r2
10000cde:	6001      	str	r1, [r0, #0]
10000ce0:	6828      	ldr	r0, [r5, #0]
10000ce2:	1941      	adds	r1, r0, r5
10000ce4:	42a1      	cmp	r1, r4
10000ce6:	bf1c      	itt	ne
10000ce8:	606c      	strne	r4, [r5, #4]
10000cea:	bd70      	popne	{r4, r5, r6, pc}
10000cec:	6861      	ldr	r1, [r4, #4]
10000cee:	6069      	str	r1, [r5, #4]
10000cf0:	6821      	ldr	r1, [r4, #0]
10000cf2:	4408      	add	r0, r1
10000cf4:	6028      	str	r0, [r5, #0]
10000cf6:	bd70      	pop	{r4, r5, r6, pc}

10000cf8 <setvbuf>:
10000cf8:	b570      	push	{r4, r5, r6, lr}
10000cfa:	68c4      	ldr	r4, [r0, #12]
10000cfc:	07a5      	lsls	r5, r4, #30
10000cfe:	d013      	beq.n	10000d28 <setvbuf+0x30>
10000d00:	0265      	lsls	r5, r4, #9
10000d02:	d411      	bmi.n	10000d28 <setvbuf+0x30>
10000d04:	f5b2 7f80 	cmp.w	r2, #256	@ 0x100
10000d08:	d009      	beq.n	10000d1e <setvbuf+0x26>
10000d0a:	f5b2 7f00 	cmp.w	r2, #512	@ 0x200
10000d0e:	d006      	beq.n	10000d1e <setvbuf+0x26>
10000d10:	f5b2 6f80 	cmp.w	r2, #1024	@ 0x400
10000d14:	d108      	bne.n	10000d28 <setvbuf+0x30>
10000d16:	2301      	movs	r3, #1
10000d18:	f100 0124 	add.w	r1, r0, #36	@ 0x24
10000d1c:	e006      	b.n	10000d2c <setvbuf+0x34>
10000d1e:	1e5d      	subs	r5, r3, #1
10000d20:	f06f 467f 	mvn.w	r6, #4278190080	@ 0xff000000
10000d24:	42b5      	cmp	r5, r6
10000d26:	d301      	bcc.n	10000d2c <setvbuf+0x34>
10000d28:	2001      	movs	r0, #1
10000d2a:	bd70      	pop	{r4, r5, r6, pc}
10000d2c:	6101      	str	r1, [r0, #16]
10000d2e:	61c3      	str	r3, [r0, #28]
10000d30:	6041      	str	r1, [r0, #4]
10000d32:	f424 6170 	bic.w	r1, r4, #3840	@ 0xf00
10000d36:	4311      	orrs	r1, r2
10000d38:	60c1      	str	r1, [r0, #12]
10000d3a:	2000      	movs	r0, #0
10000d3c:	bd70      	pop	{r4, r5, r6, pc}
	...

10000d40 <_seterr>:
10000d40:	68c1      	ldr	r1, [r0, #12]
10000d42:	f421 1100 	bic.w	r1, r1, #2097152	@ 0x200000
10000d46:	f041 0180 	orr.w	r1, r1, #128	@ 0x80
10000d4a:	60c1      	str	r1, [r0, #12]
10000d4c:	2100      	movs	r1, #0
10000d4e:	6081      	str	r1, [r0, #8]
10000d50:	6001      	str	r1, [r0, #0]
10000d52:	4770      	bx	lr

10000d54 <_writebuf>:
10000d54:	e92d 4ff7 	stmdb	sp!, {r0, r1, r2, r4, r5, r6, r7, r8, r9, sl, fp, lr}
10000d58:	4615      	mov	r5, r2
10000d5a:	460c      	mov	r4, r1
10000d5c:	f04f 3bff 	mov.w	fp, #4294967295
10000d60:	4838      	ldr	r0, [pc, #224]	@ (10000e44 <_deferredlazyseek+0x3e>)
10000d62:	68d7      	ldr	r7, [r2, #12]
10000d64:	f8d2 a014 	ldr.w	sl, [r2, #20]
10000d68:	4207      	tst	r7, r0
10000d6a:	d009      	beq.n	10000d80 <_writebuf+0x2c>
10000d6c:	4650      	mov	r0, sl
10000d6e:	69a9      	ldr	r1, [r5, #24]
10000d70:	f003 fb82 	bl	10004478 <_sys_seek>
10000d74:	2800      	cmp	r0, #0
10000d76:	db19      	blt.n	10000dac <_writebuf+0x58>
10000d78:	4832      	ldr	r0, [pc, #200]	@ (10000e44 <_deferredlazyseek+0x3e>)
10000d7a:	43c0      	mvns	r0, r0
10000d7c:	4007      	ands	r7, r0
10000d7e:	60ef      	str	r7, [r5, #12]
10000d80:	f04f 4900 	mov.w	r9, #2147483648	@ 0x80000000
10000d84:	f06f 4800 	mvn.w	r8, #2147483648	@ 0x80000000
10000d88:	454c      	cmp	r4, r9
10000d8a:	d301      	bcc.n	10000d90 <_writebuf+0x3c>
10000d8c:	4646      	mov	r6, r8
10000d8e:	e000      	b.n	10000d92 <_writebuf+0x3e>
10000d90:	4626      	mov	r6, r4
10000d92:	9900      	ldr	r1, [sp, #0]
10000d94:	463b      	mov	r3, r7
10000d96:	4650      	mov	r0, sl
10000d98:	4632      	mov	r2, r6
10000d9a:	f003 fb71 	bl	10004480 <_sys_write>
10000d9e:	69a9      	ldr	r1, [r5, #24]
10000da0:	f020 4200 	bic.w	r2, r0, #2147483648	@ 0x80000000
10000da4:	1ab2      	subs	r2, r6, r2
10000da6:	4411      	add	r1, r2
10000da8:	61a9      	str	r1, [r5, #24]
10000daa:	b128      	cbz	r0, 10000db8 <_writebuf+0x64>
10000dac:	4628      	mov	r0, r5
10000dae:	f7ff ffc7 	bl	10000d40 <_seterr>
10000db2:	4658      	mov	r0, fp
10000db4:	e8bd 8ffe 	ldmia.w	sp!, {r1, r2, r3, r4, r5, r6, r7, r8, r9, sl, fp, pc}
10000db8:	1ba4      	subs	r4, r4, r6
10000dba:	d1e5      	bne.n	10000d88 <_writebuf+0x34>
10000dbc:	2000      	movs	r0, #0
10000dbe:	e7f9      	b.n	10000db4 <_writebuf+0x60>

10000dc0 <_fflush>:
10000dc0:	b570      	push	{r4, r5, r6, lr}
10000dc2:	4604      	mov	r4, r0
10000dc4:	6905      	ldr	r5, [r0, #16]
10000dc6:	6ac0      	ldr	r0, [r0, #44]	@ 0x2c
10000dc8:	6861      	ldr	r1, [r4, #4]
10000dca:	4288      	cmp	r0, r1
10000dcc:	d800      	bhi.n	10000dd0 <_fflush+0x10>
10000dce:	4608      	mov	r0, r1
10000dd0:	68e1      	ldr	r1, [r4, #12]
10000dd2:	f421 1120 	bic.w	r1, r1, #2621440	@ 0x280000
10000dd6:	60e1      	str	r1, [r4, #12]
10000dd8:	03c9      	lsls	r1, r1, #15
10000dda:	d512      	bpl.n	10000e02 <_fflush+0x42>
10000ddc:	42a8      	cmp	r0, r5
10000dde:	d008      	beq.n	10000df2 <_fflush+0x32>
10000de0:	4622      	mov	r2, r4
10000de2:	1b41      	subs	r1, r0, r5
10000de4:	4628      	mov	r0, r5
10000de6:	f7ff ffb5 	bl	10000d54 <_writebuf>
10000dea:	b110      	cbz	r0, 10000df2 <_fflush+0x32>
10000dec:	f04f 30ff 	mov.w	r0, #4294967295
10000df0:	bd70      	pop	{r4, r5, r6, pc}
10000df2:	2000      	movs	r0, #0
10000df4:	62e5      	str	r5, [r4, #44]	@ 0x2c
10000df6:	e9c4 5001 	strd	r5, r0, [r4, #4]
10000dfa:	68e0      	ldr	r0, [r4, #12]
10000dfc:	f420 3080 	bic.w	r0, r0, #65536	@ 0x10000
10000e00:	60e0      	str	r0, [r4, #12]
10000e02:	2000      	movs	r0, #0
10000e04:	bd70      	pop	{r4, r5, r6, pc}

10000e06 <_deferredlazyseek>:
10000e06:	b510      	push	{r4, lr}
10000e08:	4604      	mov	r4, r0
10000e0a:	68c0      	ldr	r0, [r0, #12]
10000e0c:	f020 0020 	bic.w	r0, r0, #32
10000e10:	60e0      	str	r0, [r4, #12]
10000e12:	6aa1      	ldr	r1, [r4, #40]	@ 0x28
10000e14:	69a0      	ldr	r0, [r4, #24]
10000e16:	4288      	cmp	r0, r1
10000e18:	d00d      	beq.n	10000e36 <_deferredlazyseek+0x30>
10000e1a:	4620      	mov	r0, r4
10000e1c:	f7ff ffd0 	bl	10000dc0 <_fflush>
10000e20:	68e0      	ldr	r0, [r4, #12]
10000e22:	f420 5040 	bic.w	r0, r0, #12288	@ 0x3000
10000e26:	f040 0010 	orr.w	r0, r0, #16
10000e2a:	60e0      	str	r0, [r4, #12]
10000e2c:	6aa0      	ldr	r0, [r4, #40]	@ 0x28
10000e2e:	61a0      	str	r0, [r4, #24]
10000e30:	6920      	ldr	r0, [r4, #16]
10000e32:	62e0      	str	r0, [r4, #44]	@ 0x2c
10000e34:	6060      	str	r0, [r4, #4]
10000e36:	f244 0140 	movw	r1, #16448	@ 0x4040
10000e3a:	68e0      	ldr	r0, [r4, #12]
10000e3c:	4388      	bics	r0, r1
10000e3e:	60e0      	str	r0, [r4, #12]
10000e40:	bd10      	pop	{r4, pc}
10000e42:	0000      	.short	0x0000
10000e44:	00020010 	.word	0x00020010

10000e48 <freopen>:
10000e48:	e92d 41f0 	stmdb	sp!, {r4, r5, r6, r7, r8, lr}
10000e4c:	460c      	mov	r4, r1
10000e4e:	4616      	mov	r6, r2
10000e50:	0007      	movs	r7, r0
10000e52:	d047      	beq.n	10000ee4 <freopen+0x9c>
10000e54:	4610      	mov	r0, r2
10000e56:	f000 f86f 	bl	10000f38 <_fclose_internal>
10000e5a:	7820      	ldrb	r0, [r4, #0]
10000e5c:	1c61      	adds	r1, r4, #1
10000e5e:	2861      	cmp	r0, #97	@ 0x61
10000e60:	d00a      	beq.n	10000e78 <freopen+0x30>
10000e62:	2872      	cmp	r0, #114	@ 0x72
10000e64:	d002      	beq.n	10000e6c <freopen+0x24>
10000e66:	2877      	cmp	r0, #119	@ 0x77
10000e68:	d13c      	bne.n	10000ee4 <freopen+0x9c>
10000e6a:	e002      	b.n	10000e72 <freopen+0x2a>
10000e6c:	2501      	movs	r5, #1
10000e6e:	2400      	movs	r4, #0
10000e70:	e005      	b.n	10000e7e <freopen+0x36>
10000e72:	2502      	movs	r5, #2
10000e74:	2404      	movs	r4, #4
10000e76:	e002      	b.n	10000e7e <freopen+0x36>
10000e78:	2408      	movs	r4, #8
10000e7a:	f248 0502 	movw	r5, #32770	@ 0x8002
10000e7e:	f811 0b01 	ldrb.w	r0, [r1], #1
10000e82:	282b      	cmp	r0, #43	@ 0x2b
10000e84:	d006      	beq.n	10000e94 <freopen+0x4c>
10000e86:	2862      	cmp	r0, #98	@ 0x62
10000e88:	d009      	beq.n	10000e9e <freopen+0x56>
10000e8a:	f811 0c01 	ldrb.w	r0, [r1, #-1]
10000e8e:	2874      	cmp	r0, #116	@ 0x74
10000e90:	d00a      	beq.n	10000ea8 <freopen+0x60>
10000e92:	e00b      	b.n	10000eac <freopen+0x64>
10000e94:	f045 0503 	orr.w	r5, r5, #3
10000e98:	f044 0402 	orr.w	r4, r4, #2
10000e9c:	e7ef      	b.n	10000e7e <freopen+0x36>
10000e9e:	f045 0504 	orr.w	r5, r5, #4
10000ea2:	f044 0401 	orr.w	r4, r4, #1
10000ea6:	e7ea      	b.n	10000e7e <freopen+0x36>
10000ea8:	f044 0410 	orr.w	r4, r4, #16
10000eac:	4638      	mov	r0, r7
10000eae:	4621      	mov	r1, r4
10000eb0:	f003 fab2 	bl	10004418 <_sys_open>
10000eb4:	1c41      	adds	r1, r0, #1
10000eb6:	d015      	beq.n	10000ee4 <freopen+0x9c>
10000eb8:	2100      	movs	r1, #0
10000eba:	6131      	str	r1, [r6, #16]
10000ebc:	6071      	str	r1, [r6, #4]
10000ebe:	f44f 7100 	mov.w	r1, #512	@ 0x200
10000ec2:	60f5      	str	r5, [r6, #12]
10000ec4:	61f1      	str	r1, [r6, #28]
10000ec6:	6170      	str	r0, [r6, #20]
10000ec8:	0720      	lsls	r0, r4, #28
10000eca:	d504      	bpl.n	10000ed6 <freopen+0x8e>
10000ecc:	4630      	mov	r0, r6
10000ece:	2202      	movs	r2, #2
10000ed0:	2100      	movs	r1, #0
10000ed2:	f000 f8b9 	bl	10001048 <_fseek>
10000ed6:	6d30      	ldr	r0, [r6, #80]	@ 0x50
10000ed8:	f040 0001 	orr.w	r0, r0, #1
10000edc:	6530      	str	r0, [r6, #80]	@ 0x50
10000ede:	4630      	mov	r0, r6
10000ee0:	e8bd 81f0 	ldmia.w	sp!, {r4, r5, r6, r7, r8, pc}
10000ee4:	2000      	movs	r0, #0
10000ee6:	e7fb      	b.n	10000ee0 <freopen+0x98>

10000ee8 <fopen>:
10000ee8:	e92d 41f0 	stmdb	sp!, {r4, r5, r6, r7, r8, lr}
10000eec:	460d      	mov	r5, r1
10000eee:	4606      	mov	r6, r0
10000ef0:	4c10      	ldr	r4, [pc, #64]	@ (10000f34 <fopen+0x4c>)
10000ef2:	6d20      	ldr	r0, [r4, #80]	@ 0x50
10000ef4:	07c1      	lsls	r1, r0, #31
10000ef6:	d004      	beq.n	10000f02 <fopen+0x1a>
10000ef8:	0841      	lsrs	r1, r0, #1
10000efa:	d004      	beq.n	10000f06 <fopen+0x1e>
10000efc:	f020 0401 	bic.w	r4, r0, #1
10000f00:	e7f7      	b.n	10000ef2 <fopen+0xa>
10000f02:	4622      	mov	r2, r4
10000f04:	e00e      	b.n	10000f24 <fopen+0x3c>
10000f06:	2054      	movs	r0, #84	@ 0x54
10000f08:	f7ff fea0 	bl	10000c4c <malloc>
10000f0c:	0007      	movs	r7, r0
10000f0e:	d00e      	beq.n	10000f2e <fopen+0x46>
10000f10:	6d20      	ldr	r0, [r4, #80]	@ 0x50
10000f12:	f047 0101 	orr.w	r1, r7, #1
10000f16:	4308      	orrs	r0, r1
10000f18:	2154      	movs	r1, #84	@ 0x54
10000f1a:	6520      	str	r0, [r4, #80]	@ 0x50
10000f1c:	4638      	mov	r0, r7
10000f1e:	f7ff fc01 	bl	10000724 <__aeabi_memclr4>
10000f22:	463a      	mov	r2, r7
10000f24:	4629      	mov	r1, r5
10000f26:	4630      	mov	r0, r6
10000f28:	e8bd 41f0 	ldmia.w	sp!, {r4, r5, r6, r7, r8, lr}
10000f2c:	e78c      	b.n	10000e48 <freopen>
10000f2e:	2000      	movs	r0, #0
10000f30:	e7d6      	b.n	10000ee0 <freopen+0x98>
10000f32:	0000      	.short	0x0000
10000f34:	38000028 	.word	0x38000028

10000f38 <_fclose_internal>:
10000f38:	e92d 47f0 	stmdb	sp!, {r4, r5, r6, r7, r8, r9, sl, lr}
10000f3c:	4604      	mov	r4, r0
10000f3e:	f04f 38ff 	mov.w	r8, #4294967295
10000f42:	2600      	movs	r6, #0
10000f44:	68c5      	ldr	r5, [r0, #12]
10000f46:	e9d4 9704 	ldrd	r9, r7, [r4, #16]
10000f4a:	07a8      	lsls	r0, r5, #30
10000f4c:	d018      	beq.n	10000f80 <_fclose_internal+0x48>
10000f4e:	4620      	mov	r0, r4
10000f50:	f7ff ff36 	bl	10000dc0 <_fflush>
10000f54:	4638      	mov	r0, r7
10000f56:	f003 fa4b 	bl	100043f0 <_sys_close>
10000f5a:	2800      	cmp	r0, #0
10000f5c:	da00      	bge.n	10000f60 <_fclose_internal+0x28>
10000f5e:	4646      	mov	r6, r8
10000f60:	0528      	lsls	r0, r5, #20
10000f62:	d502      	bpl.n	10000f6a <_fclose_internal+0x32>
10000f64:	4648      	mov	r0, r9
10000f66:	f7ff fea0 	bl	10000caa <free>
10000f6a:	214c      	movs	r1, #76	@ 0x4c
10000f6c:	4620      	mov	r0, r4
10000f6e:	f7ff fbd9 	bl	10000724 <__aeabi_memclr4>
10000f72:	6d20      	ldr	r0, [r4, #80]	@ 0x50
10000f74:	f020 0001 	bic.w	r0, r0, #1
10000f78:	6520      	str	r0, [r4, #80]	@ 0x50
10000f7a:	4630      	mov	r0, r6
10000f7c:	e8bd 87f0 	ldmia.w	sp!, {r4, r5, r6, r7, r8, r9, sl, pc}
10000f80:	4640      	mov	r0, r8
10000f82:	e7fb      	b.n	10000f7c <_fclose_internal+0x44>

10000f84 <exit>:
10000f84:	b510      	push	{r4, lr}
10000f86:	4604      	mov	r4, r0
10000f88:	f3af 8000 	nop.w
10000f8c:	4620      	mov	r0, r4
10000f8e:	e8bd 4010 	ldmia.w	sp!, {r4, lr}
10000f92:	f7ff baad 	b.w	100004f0 <__rt_exit>

10000f96 <__rt_SIGRTRED>:
10000f96:	b510      	push	{r4, lr}
10000f98:	f000 f8d8 	bl	1000114c <__rt_SIGRTRED_inner>
10000f9c:	e8bd 4010 	ldmia.w	sp!, {r4, lr}
10000fa0:	f000 b8ce 	b.w	10001140 <__sig_exit>

10000fa4 <__rt_heap_descriptor>:
10000fa4:	4800      	ldr	r0, [pc, #0]	@ (10000fa8 <__rt_heap_descriptor+0x4>)
10000fa6:	4770      	bx	lr
10000fa8:	3800012c 	.word	0x3800012c

10000fac <__use_no_heap>:
10000fac:	4770      	bx	lr

10000fae <__heap$guard>:
10000fae:	4770      	bx	lr

10000fb0 <_terminate_user_alloc>:
10000fb0:	4770      	bx	lr

10000fb2 <_init_user_alloc>:
10000fb2:	4770      	bx	lr

10000fb4 <__Heap_Full>:
10000fb4:	b538      	push	{r3, r4, r5, lr}
10000fb6:	4604      	mov	r4, r0
10000fb8:	460a      	mov	r2, r1
10000fba:	2000      	movs	r0, #0
10000fbc:	4669      	mov	r1, sp
10000fbe:	f3af 8000 	nop.w
10000fc2:	2800      	cmp	r0, #0
10000fc4:	bf08      	it	eq
10000fc6:	bd38      	popeq	{r3, r4, r5, pc}
10000fc8:	4602      	mov	r2, r0
10000fca:	9900      	ldr	r1, [sp, #0]
10000fcc:	4620      	mov	r0, r4
10000fce:	f000 f8de 	bl	1000118e <__Heap_ProvideMemory>
10000fd2:	2001      	movs	r0, #1
10000fd4:	bd38      	pop	{r3, r4, r5, pc}

10000fd6 <__Heap_Broken>:
10000fd6:	2001      	movs	r0, #1
10000fd8:	f000 b92d 	b.w	10001236 <__rt_SIGRTMEM>

10000fdc <_init_alloc>:
10000fdc:	b5f8      	push	{r3, r4, r5, r6, r7, lr}
10000fde:	f3af 8000 	nop.w
10000fe2:	4605      	mov	r5, r0
10000fe4:	2000      	movs	r0, #0
10000fe6:	460c      	mov	r4, r1
10000fe8:	200c      	movs	r0, #12
10000fea:	bf00      	nop
10000fec:	4606      	mov	r6, r0
10000fee:	19a8      	adds	r0, r5, r6
10000ff0:	42a0      	cmp	r0, r4
10000ff2:	d90d      	bls.n	10001010 <_init_alloc+0x34>
10000ff4:	4632      	mov	r2, r6
10000ff6:	4669      	mov	r1, sp
10000ff8:	2000      	movs	r0, #0
10000ffa:	f3af 8000 	nop.w
10000ffe:	0007      	movs	r7, r0
10001000:	bf08      	it	eq
10001002:	f000 f918 	bleq	10001236 <__rt_SIGRTMEM>
10001006:	9800      	ldr	r0, [sp, #0]
10001008:	42a0      	cmp	r0, r4
1000100a:	bf18      	it	ne
1000100c:	4605      	movne	r5, r0
1000100e:	19c4      	adds	r4, r0, r7
10001010:	f7ff ffc8 	bl	10000fa4 <__rt_heap_descriptor>
10001014:	6005      	str	r5, [r0, #0]
10001016:	4607      	mov	r7, r0
10001018:	1df0      	adds	r0, r6, #7
1000101a:	f020 0007 	bic.w	r0, r0, #7
1000101e:	1946      	adds	r6, r0, r5
10001020:	4628      	mov	r0, r5
10001022:	f000 f80a 	bl	1000103a <__Heap_Initialize>
10001026:	42b4      	cmp	r4, r6
10001028:	bf08      	it	eq
1000102a:	bdf8      	popeq	{r3, r4, r5, r6, r7, pc}
1000102c:	1ba2      	subs	r2, r4, r6
1000102e:	4631      	mov	r1, r6
10001030:	6838      	ldr	r0, [r7, #0]
10001032:	e8bd 40f8 	ldmia.w	sp!, {r3, r4, r5, r6, r7, lr}
10001036:	f000 b8aa 	b.w	1000118e <__Heap_ProvideMemory>

1000103a <__Heap_Initialize>:
1000103a:	2100      	movs	r1, #0
1000103c:	6001      	str	r1, [r0, #0]
1000103e:	6041      	str	r1, [r0, #4]
10001040:	4770      	bx	lr

10001042 <__Heap_DescSize>:
10001042:	200c      	movs	r0, #12
10001044:	4770      	bx	lr
	...

10001048 <_fseek>:
10001048:	e92d 41f0 	stmdb	sp!, {r4, r5, r6, r7, r8, lr}
1000104c:	4604      	mov	r4, r0
1000104e:	4616      	mov	r6, r2
10001050:	460d      	mov	r5, r1
10001052:	6947      	ldr	r7, [r0, #20]
10001054:	7b00      	ldrb	r0, [r0, #12]
10001056:	0780      	lsls	r0, r0, #30
10001058:	d02e      	beq.n	100010b8 <_fseek+0x70>
1000105a:	4638      	mov	r0, r7
1000105c:	f003 f9d4 	bl	10004408 <_sys_istty>
10001060:	bb50      	cbnz	r0, 100010b8 <_fseek+0x70>
10001062:	b33e      	cbz	r6, 100010b4 <_fseek+0x6c>
10001064:	2e01      	cmp	r6, #1
10001066:	d002      	beq.n	1000106e <_fseek+0x26>
10001068:	2e02      	cmp	r6, #2
1000106a:	d125      	bne.n	100010b8 <_fseek+0x70>
1000106c:	e004      	b.n	10001078 <_fseek+0x30>
1000106e:	4620      	mov	r0, r4
10001070:	f000 f8a7 	bl	100011c2 <_ftell_internal>
10001074:	4405      	add	r5, r0
10001076:	e01d      	b.n	100010b4 <_fseek+0x6c>
10001078:	4638      	mov	r0, r7
1000107a:	f003 f9c3 	bl	10004404 <_sys_flen>
1000107e:	68e1      	ldr	r1, [r4, #12]
10001080:	2800      	cmp	r0, #0
10001082:	f041 0110 	orr.w	r1, r1, #16
10001086:	60e1      	str	r1, [r4, #12]
10001088:	da05      	bge.n	10001096 <_fseek+0x4e>
1000108a:	4620      	mov	r0, r4
1000108c:	f7ff fe58 	bl	10000d40 <_seterr>
10001090:	2001      	movs	r0, #1
10001092:	e8bd 81f0 	ldmia.w	sp!, {r4, r5, r6, r7, r8, pc}
10001096:	03c9      	lsls	r1, r1, #15
10001098:	d50b      	bpl.n	100010b2 <_fseek+0x6a>
1000109a:	6862      	ldr	r2, [r4, #4]
1000109c:	6ae1      	ldr	r1, [r4, #44]	@ 0x2c
1000109e:	4291      	cmp	r1, r2
100010a0:	d800      	bhi.n	100010a4 <_fseek+0x5c>
100010a2:	4611      	mov	r1, r2
100010a4:	69a2      	ldr	r2, [r4, #24]
100010a6:	4411      	add	r1, r2
100010a8:	6922      	ldr	r2, [r4, #16]
100010aa:	1a89      	subs	r1, r1, r2
100010ac:	4281      	cmp	r1, r0
100010ae:	dd00      	ble.n	100010b2 <_fseek+0x6a>
100010b0:	4608      	mov	r0, r1
100010b2:	4405      	add	r5, r0
100010b4:	2d00      	cmp	r5, #0
100010b6:	da01      	bge.n	100010bc <_fseek+0x74>
100010b8:	2002      	movs	r0, #2
100010ba:	e7ea      	b.n	10001092 <_fseek+0x4a>
100010bc:	6ae1      	ldr	r1, [r4, #44]	@ 0x2c
100010be:	6860      	ldr	r0, [r4, #4]
100010c0:	68e2      	ldr	r2, [r4, #12]
100010c2:	4281      	cmp	r1, r0
100010c4:	d206      	bcs.n	100010d4 <_fseek+0x8c>
100010c6:	0391      	lsls	r1, r2, #14
100010c8:	62e0      	str	r0, [r4, #44]	@ 0x2c
100010ca:	d503      	bpl.n	100010d4 <_fseek+0x8c>
100010cc:	f422 3100 	bic.w	r1, r2, #131072	@ 0x20000
100010d0:	f041 0210 	orr.w	r2, r1, #16
100010d4:	69a6      	ldr	r6, [r4, #24]
100010d6:	2700      	movs	r7, #0
100010d8:	42ae      	cmp	r6, r5
100010da:	dc13      	bgt.n	10001104 <_fseek+0xbc>
100010dc:	6ae1      	ldr	r1, [r4, #44]	@ 0x2c
100010de:	4281      	cmp	r1, r0
100010e0:	d901      	bls.n	100010e6 <_fseek+0x9e>
100010e2:	460b      	mov	r3, r1
100010e4:	e000      	b.n	100010e8 <_fseek+0xa0>
100010e6:	4603      	mov	r3, r0
100010e8:	eb03 0c06 	add.w	ip, r3, r6
100010ec:	6923      	ldr	r3, [r4, #16]
100010ee:	ebac 0c03 	sub.w	ip, ip, r3
100010f2:	45ac      	cmp	ip, r5
100010f4:	dd06      	ble.n	10001104 <_fseek+0xbc>
100010f6:	4281      	cmp	r1, r0
100010f8:	d901      	bls.n	100010fe <_fseek+0xb6>
100010fa:	468c      	mov	ip, r1
100010fc:	e000      	b.n	10001100 <_fseek+0xb8>
100010fe:	4684      	mov	ip, r0
10001100:	459c      	cmp	ip, r3
10001102:	d105      	bne.n	10001110 <_fseek+0xc8>
10001104:	60a7      	str	r7, [r4, #8]
10001106:	6027      	str	r7, [r4, #0]
10001108:	f042 0020 	orr.w	r0, r2, #32
1000110c:	62a5      	str	r5, [r4, #40]	@ 0x28
1000110e:	e00d      	b.n	1000112c <_fseek+0xe4>
10001110:	1bad      	subs	r5, r5, r6
10001112:	69e6      	ldr	r6, [r4, #28]
10001114:	1bae      	subs	r6, r5, r6
10001116:	4281      	cmp	r1, r0
10001118:	60a6      	str	r6, [r4, #8]
1000111a:	d900      	bls.n	1000111e <_fseek+0xd6>
1000111c:	4608      	mov	r0, r1
1000111e:	1ac0      	subs	r0, r0, r3
10001120:	1a28      	subs	r0, r5, r0
10001122:	6020      	str	r0, [r4, #0]
10001124:	1958      	adds	r0, r3, r5
10001126:	6060      	str	r0, [r4, #4]
10001128:	f022 0020 	bic.w	r0, r2, #32
1000112c:	4903      	ldr	r1, [pc, #12]	@ (1000113c <_fseek+0xf4>)
1000112e:	4008      	ands	r0, r1
10001130:	60e0      	str	r0, [r4, #12]
10001132:	2000      	movs	r0, #0
10001134:	f884 7048 	strb.w	r7, [r4, #72]	@ 0x48
10001138:	e7ab      	b.n	10001092 <_fseek+0x4a>
1000113a:	0000      	.short	0x0000
1000113c:	ffd7cfbf 	.word	0xffd7cfbf

10001140 <__sig_exit>:
10001140:	2800      	cmp	r0, #0
10001142:	d001      	beq.n	10001148 <__sig_exit+0x8>
10001144:	f000 b81c 	b.w	10001180 <_sys_exit>
10001148:	4770      	bx	lr
	...

1000114c <__rt_SIGRTRED_inner>:
1000114c:	b510      	push	{r4, lr}
1000114e:	4601      	mov	r1, r0
10001150:	a002      	add	r0, pc, #8	@ (adr r0, 1000115c <__rt_SIGRTRED_inner+0x10>)
10001152:	f000 f857 	bl	10001204 <__default_signal_display>
10001156:	2001      	movs	r0, #1
10001158:	bd10      	pop	{r4, pc}
1000115a:	0000      	.short	0x0000
1000115c:	52474953 	.word	0x52474953
10001160:	44455254 	.word	0x44455254
10001164:	6552203a 	.word	0x6552203a
10001168:	65726964 	.word	0x65726964
1000116c:	203a7463 	.word	0x203a7463
10001170:	276e6163 	.word	0x276e6163
10001174:	706f2074 	.word	0x706f2074
10001178:	203a6e65 	.word	0x203a6e65
1000117c:	00000000 	.word	0x00000000

10001180 <_sys_exit>:
10001180:	4901      	ldr	r1, [pc, #4]	@ (10001188 <_sys_exit+0x8>)
10001182:	2018      	movs	r0, #24
10001184:	beab      	bkpt	0x00ab
10001186:	e7fe      	b.n	10001186 <_sys_exit+0x6>
10001188:	00020026 	.word	0x00020026

1000118c <__use_no_semihosting_swi>:
1000118c:	4770      	bx	lr

1000118e <__Heap_ProvideMemory>:
1000118e:	4603      	mov	r3, r0
10001190:	6840      	ldr	r0, [r0, #4]
10001192:	468c      	mov	ip, r1
10001194:	2800      	cmp	r0, #0
10001196:	bf18      	it	ne
10001198:	4288      	cmpne	r0, r1
1000119a:	bf3c      	itt	cc
1000119c:	4603      	movcc	r3, r0
1000119e:	6840      	ldrcc	r0, [r0, #4]
100011a0:	d3f8      	bcc.n	10001194 <__Heap_ProvideMemory+0x6>
100011a2:	6818      	ldr	r0, [r3, #0]
100011a4:	4418      	add	r0, r3
100011a6:	4288      	cmp	r0, r1
100011a8:	d007      	beq.n	100011ba <__Heap_ProvideMemory+0x2c>
100011aa:	f10c 0003 	add.w	r0, ip, #3
100011ae:	f020 0007 	bic.w	r0, r0, #7
100011b2:	1d00      	adds	r0, r0, #4
100011b4:	1a41      	subs	r1, r0, r1
100011b6:	1a52      	subs	r2, r2, r1
100011b8:	4601      	mov	r1, r0
100011ba:	1d08      	adds	r0, r1, #4
100011bc:	600a      	str	r2, [r1, #0]
100011be:	f7ff bd74 	b.w	10000caa <free>

100011c2 <_ftell_internal>:
100011c2:	b510      	push	{r4, lr}
100011c4:	4601      	mov	r1, r0
100011c6:	68c2      	ldr	r2, [r0, #12]
100011c8:	0790      	lsls	r0, r2, #30
100011ca:	d003      	beq.n	100011d4 <_ftell_internal+0x12>
100011cc:	0690      	lsls	r0, r2, #26
100011ce:	d507      	bpl.n	100011e0 <_ftell_internal+0x1e>
100011d0:	6a88      	ldr	r0, [r1, #40]	@ 0x28
100011d2:	e00a      	b.n	100011ea <_ftell_internal+0x28>
100011d4:	f000 f83e 	bl	10001254 <__aeabi_errno_addr>
100011d8:	2101      	movs	r1, #1
100011da:	6001      	str	r1, [r0, #0]
100011dc:	1e88      	subs	r0, r1, #2
100011de:	bd10      	pop	{r4, pc}
100011e0:	698b      	ldr	r3, [r1, #24]
100011e2:	6848      	ldr	r0, [r1, #4]
100011e4:	4418      	add	r0, r3
100011e6:	690b      	ldr	r3, [r1, #16]
100011e8:	1ac0      	subs	r0, r0, r3
100011ea:	f891 3048 	ldrb.w	r3, [r1, #72]	@ 0x48
100011ee:	b11b      	cbz	r3, 100011f8 <_ftell_internal+0x36>
100011f0:	f891 1049 	ldrb.w	r1, [r1, #73]	@ 0x49
100011f4:	1a40      	subs	r0, r0, r1
100011f6:	bd10      	pop	{r4, pc}
100011f8:	0311      	lsls	r1, r2, #12
100011fa:	d5fc      	bpl.n	100011f6 <_ftell_internal+0x34>
100011fc:	2800      	cmp	r0, #0
100011fe:	ddfa      	ble.n	100011f6 <_ftell_internal+0x34>
10001200:	1e40      	subs	r0, r0, #1
10001202:	bd10      	pop	{r4, pc}

10001204 <__default_signal_display>:
10001204:	b570      	push	{r4, r5, r6, lr}
10001206:	4605      	mov	r5, r0
10001208:	460c      	mov	r4, r1
1000120a:	200a      	movs	r0, #10
1000120c:	e000      	b.n	10001210 <__default_signal_display+0xc>
1000120e:	1c6d      	adds	r5, r5, #1
10001210:	f000 f818 	bl	10001244 <_ttywrch>
10001214:	b135      	cbz	r5, 10001224 <__default_signal_display+0x20>
10001216:	7828      	ldrb	r0, [r5, #0]
10001218:	2800      	cmp	r0, #0
1000121a:	d1f8      	bne.n	1000120e <__default_signal_display+0xa>
1000121c:	e002      	b.n	10001224 <__default_signal_display+0x20>
1000121e:	1c64      	adds	r4, r4, #1
10001220:	f000 f810 	bl	10001244 <_ttywrch>
10001224:	b114      	cbz	r4, 1000122c <__default_signal_display+0x28>
10001226:	7820      	ldrb	r0, [r4, #0]
10001228:	2800      	cmp	r0, #0
1000122a:	d1f8      	bne.n	1000121e <__default_signal_display+0x1a>
1000122c:	e8bd 4070 	ldmia.w	sp!, {r4, r5, r6, lr}
10001230:	200a      	movs	r0, #10
10001232:	f000 b807 	b.w	10001244 <_ttywrch>

10001236 <__rt_SIGRTMEM>:
10001236:	b510      	push	{r4, lr}
10001238:	f000 f810 	bl	1000125c <__rt_SIGRTMEM_inner>
1000123c:	e8bd 4010 	ldmia.w	sp!, {r4, lr}
10001240:	f7ff bf7e 	b.w	10001140 <__sig_exit>

10001244 <_ttywrch>:
10001244:	b508      	push	{r3, lr}
10001246:	4669      	mov	r1, sp
10001248:	f88d 0000 	strb.w	r0, [sp]
1000124c:	2003      	movs	r0, #3
1000124e:	beab      	bkpt	0x00ab
10001250:	bd08      	pop	{r3, pc}
	...

10001254 <__aeabi_errno_addr>:
10001254:	4800      	ldr	r0, [pc, #0]	@ (10001258 <__aeabi_errno_addr+0x4>)
10001256:	4770      	bx	lr
10001258:	38000124 	.word	0x38000124

1000125c <__rt_SIGRTMEM_inner>:
1000125c:	b510      	push	{r4, lr}
1000125e:	2801      	cmp	r0, #1
10001260:	d005      	beq.n	1000126e <__rt_SIGRTMEM_inner+0x12>
10001262:	2100      	movs	r1, #0
10001264:	a003      	add	r0, pc, #12	@ (adr r0, 10001274 <__rt_SIGRTMEM_inner+0x18>)
10001266:	f7ff ffcd 	bl	10001204 <__default_signal_display>
1000126a:	2001      	movs	r0, #1
1000126c:	bd10      	pop	{r4, pc}
1000126e:	a109      	add	r1, pc, #36	@ (adr r1, 10001294 <__rt_SIGRTMEM_inner+0x38>)
10001270:	e7f8      	b.n	10001264 <__rt_SIGRTMEM_inner+0x8>
10001272:	0000      	.short	0x0000
10001274:	52474953 	.word	0x52474953
10001278:	4d454d54 	.word	0x4d454d54
1000127c:	754f203a 	.word	0x754f203a
10001280:	666f2074 	.word	0x666f2074
10001284:	61656820 	.word	0x61656820
10001288:	656d2070 	.word	0x656d2070
1000128c:	79726f6d 	.word	0x79726f6d
10001290:	00000000 	.word	0x00000000
10001294:	6548203a 	.word	0x6548203a
10001298:	6d207061 	.word	0x6d207061
1000129c:	726f6d65 	.word	0x726f6d65
100012a0:	6f632079 	.word	0x6f632079
100012a4:	70757272 	.word	0x70757272
100012a8:	00646574 	.word	0x00646574

100012ac <CFA_ENGINE_new_log_entry>:
100012ac:	b570      	push	{r4, r5, r6, lr}
100012ae:	f240 15d8 	movw	r5, #472	@ 0x1d8
100012b2:	f6c3 0500 	movt	r5, #14336	@ 0x3800
100012b6:	f8b5 105e 	ldrh.w	r1, [r5, #94]	@ 0x5e
100012ba:	4604      	mov	r4, r0
100012bc:	f5b1 7f00 	cmp.w	r1, #512	@ 0x200
100012c0:	d31e      	bcc.n	10001300 <CFA_ENGINE_new_log_entry+0x54>
100012c2:	f44f 7000 	mov.w	r0, #512	@ 0x200
100012c6:	f8a5 005e 	strh.w	r0, [r5, #94]	@ 0x5e
100012ca:	f105 0060 	add.w	r0, r5, #96	@ 0x60
100012ce:	f44f 7100 	mov.w	r1, #512	@ 0x200
100012d2:	2201      	movs	r2, #1
100012d4:	2601      	movs	r6, #1
100012d6:	f003 fbf3 	bl	10004ac0 <stdout_putbuffer>
100012da:	f240 10c8 	movw	r0, #456	@ 0x1c8
100012de:	f6c3 0000 	movt	r0, #14336	@ 0x3800
100012e2:	6801      	ldr	r1, [r0, #0]
100012e4:	2200      	movs	r2, #0
100012e6:	f8a5 205e 	strh.w	r2, [r5, #94]	@ 0x5e
100012ea:	b119      	cbz	r1, 100012f4 <CFA_ENGINE_new_log_entry+0x48>
100012ec:	6629      	str	r1, [r5, #96]	@ 0x60
100012ee:	6002      	str	r2, [r0, #0]
100012f0:	f8a5 605e 	strh.w	r6, [r5, #94]	@ 0x5e
100012f4:	f8b5 005e 	ldrh.w	r0, [r5, #94]	@ 0x5e
100012f8:	eb05 0180 	add.w	r1, r5, r0, lsl #2
100012fc:	660c      	str	r4, [r1, #96]	@ 0x60
100012fe:	e043      	b.n	10001388 <CFA_ENGINE_new_log_entry+0xdc>
10001300:	1e4a      	subs	r2, r1, #1
10001302:	eb05 0082 	add.w	r0, r5, r2, lsl #2
10001306:	428a      	cmp	r2, r1
10001308:	6e03      	ldr	r3, [r0, #96]	@ 0x60
1000130a:	f240 10c4 	movw	r0, #452	@ 0x1c4
1000130e:	f6c3 0000 	movt	r0, #14336	@ 0x3800
10001312:	f240 16d4 	movw	r6, #468	@ 0x1d4
10001316:	7802      	ldrb	r2, [r0, #0]
10001318:	f6c3 0600 	movt	r6, #14336	@ 0x3800
1000131c:	6033      	str	r3, [r6, #0]
1000131e:	d207      	bcs.n	10001330 <CFA_ENGINE_new_log_entry+0x84>
10001320:	42a3      	cmp	r3, r4
10001322:	d105      	bne.n	10001330 <CFA_ENGINE_new_log_entry+0x84>
10001324:	2a01      	cmp	r2, #1
10001326:	d033      	beq.n	10001390 <CFA_ENGINE_new_log_entry+0xe4>
10001328:	bb8a      	cbnz	r2, 1000138e <CFA_ENGINE_new_log_entry+0xe2>
1000132a:	2101      	movs	r1, #1
1000132c:	7001      	strb	r1, [r0, #0]
1000132e:	bd70      	pop	{r4, r5, r6, pc}
10001330:	2a01      	cmp	r2, #1
10001332:	f240 12c8 	movw	r2, #456	@ 0x1c8
10001336:	f6c3 0200 	movt	r2, #14336	@ 0x3800
1000133a:	d119      	bne.n	10001370 <CFA_ENGINE_new_log_entry+0xc4>
1000133c:	f240 0c22 	movw	ip, #34	@ 0x22
10001340:	f6c3 0c00 	movt	ip, #14336	@ 0x3800
10001344:	f8bc 6000 	ldrh.w	r6, [ip]
10001348:	eb05 0381 	add.w	r3, r5, r1, lsl #2
1000134c:	f6cf 76ff 	movt	r6, #65535	@ 0xffff
10001350:	661e      	str	r6, [r3, #96]	@ 0x60
10001352:	686e      	ldr	r6, [r5, #4]
10001354:	2300      	movs	r3, #0
10001356:	7003      	strb	r3, [r0, #0]
10001358:	1c70      	adds	r0, r6, #1
1000135a:	6068      	str	r0, [r5, #4]
1000135c:	1c48      	adds	r0, r1, #1
1000135e:	2101      	movs	r1, #1
10001360:	f8a5 005e 	strh.w	r0, [r5, #94]	@ 0x5e
10001364:	f5b0 7f00 	cmp.w	r0, #512	@ 0x200
10001368:	f8ac 1000 	strh.w	r1, [ip]
1000136c:	bf08      	it	eq
1000136e:	6014      	streq	r4, [r2, #0]
10001370:	6810      	ldr	r0, [r2, #0]
10001372:	2800      	cmp	r0, #0
10001374:	bf18      	it	ne
10001376:	bd70      	popne	{r4, r5, r6, pc}
10001378:	f8b5 005e 	ldrh.w	r0, [r5, #94]	@ 0x5e
1000137c:	686a      	ldr	r2, [r5, #4]
1000137e:	eb05 0180 	add.w	r1, r5, r0, lsl #2
10001382:	660c      	str	r4, [r1, #96]	@ 0x60
10001384:	1c51      	adds	r1, r2, #1
10001386:	6069      	str	r1, [r5, #4]
10001388:	3001      	adds	r0, #1
1000138a:	f8a5 005e 	strh.w	r0, [r5, #94]	@ 0x5e
1000138e:	bd70      	pop	{r4, r5, r6, pc}
10001390:	f240 0022 	movw	r0, #34	@ 0x22
10001394:	f6c3 0000 	movt	r0, #14336	@ 0x3800
10001398:	8801      	ldrh	r1, [r0, #0]
1000139a:	3101      	adds	r1, #1
1000139c:	8001      	strh	r1, [r0, #0]
1000139e:	bd70      	pop	{r4, r5, r6, pc}

100013a0 <Default_Handler>:
100013a0:	a002      	add	r0, pc, #8	@ (adr r0, 100013ac <Default_Handler+0xc>)
100013a2:	f7ff f97d 	bl	100006a0 <puts>
100013a6:	bf00      	nop
100013a8:	e7fe      	b.n	100013a8 <Default_Handler+0x8>
100013aa:	bf00      	nop
100013ac:	474f4c5b 	.word	0x474f4c5b
100013b0:	6544205d 	.word	0x6544205d
100013b4:	6c756166 	.word	0x6c756166
100013b8:	61482074 	.word	0x61482074
100013bc:	656c646e 	.word	0x656c646e
100013c0:	61462072 	.word	0x61462072
100013c4:	00746c75 	.word	0x00746c75

100013c8 <GLCD_ClearScreen>:
100013c8:	b5b0      	push	{r4, r5, r7, lr}
100013ca:	f242 044c 	movw	r4, #8268	@ 0x204c
100013ce:	f246 0508 	movw	r5, #24584	@ 0x6008
100013d2:	2000      	movs	r0, #0
100013d4:	2100      	movs	r1, #0
100013d6:	f44f 72a0 	mov.w	r2, #320	@ 0x140
100013da:	23f0      	movs	r3, #240	@ 0xf0
100013dc:	f2c4 0430 	movt	r4, #16432	@ 0x4030
100013e0:	f2c4 0520 	movt	r5, #16416	@ 0x4020
100013e4:	f001 fe18 	bl	10003018 <GLCD_SetWindow>
100013e8:	6820      	ldr	r0, [r4, #0]
100013ea:	f020 0001 	bic.w	r0, r0, #1
100013ee:	6020      	str	r0, [r4, #0]
100013f0:	2070      	movs	r0, #112	@ 0x70
100013f2:	6028      	str	r0, [r5, #0]
100013f4:	6868      	ldr	r0, [r5, #4]
100013f6:	0740      	lsls	r0, r0, #29
100013f8:	d5fc      	bpl.n	100013f4 <GLCD_ClearScreen+0x2c>
100013fa:	6828      	ldr	r0, [r5, #0]
100013fc:	2000      	movs	r0, #0
100013fe:	6028      	str	r0, [r5, #0]
10001400:	6868      	ldr	r0, [r5, #4]
10001402:	0740      	lsls	r0, r0, #29
10001404:	d5fc      	bpl.n	10001400 <GLCD_ClearScreen+0x38>
10001406:	6828      	ldr	r0, [r5, #0]
10001408:	2022      	movs	r0, #34	@ 0x22
1000140a:	6028      	str	r0, [r5, #0]
1000140c:	6868      	ldr	r0, [r5, #4]
1000140e:	0740      	lsls	r0, r0, #29
10001410:	d5fc      	bpl.n	1000140c <GLCD_ClearScreen+0x44>
10001412:	6828      	ldr	r0, [r5, #0]
10001414:	6820      	ldr	r0, [r4, #0]
10001416:	f040 0001 	orr.w	r0, r0, #1
1000141a:	6020      	str	r0, [r4, #0]
1000141c:	6820      	ldr	r0, [r4, #0]
1000141e:	f020 0001 	bic.w	r0, r0, #1
10001422:	6020      	str	r0, [r4, #0]
10001424:	2072      	movs	r0, #114	@ 0x72
10001426:	6028      	str	r0, [r5, #0]
10001428:	6868      	ldr	r0, [r5, #4]
1000142a:	0740      	lsls	r0, r0, #29
1000142c:	d5fc      	bpl.n	10001428 <GLCD_ClearScreen+0x60>
1000142e:	6828      	ldr	r0, [r5, #0]
10001430:	f240 0020 	movw	r0, #32
10001434:	f6c3 0000 	movt	r0, #14336	@ 0x3800
10001438:	8801      	ldrh	r1, [r0, #0]
1000143a:	2200      	movs	r2, #0
1000143c:	0a08      	lsrs	r0, r1, #8
1000143e:	b2c9      	uxtb	r1, r1
10001440:	6028      	str	r0, [r5, #0]
10001442:	bf00      	nop
10001444:	686b      	ldr	r3, [r5, #4]
10001446:	075b      	lsls	r3, r3, #29
10001448:	d5fc      	bpl.n	10001444 <GLCD_ClearScreen+0x7c>
1000144a:	682b      	ldr	r3, [r5, #0]
1000144c:	6029      	str	r1, [r5, #0]
1000144e:	bf00      	nop
10001450:	686b      	ldr	r3, [r5, #4]
10001452:	075b      	lsls	r3, r3, #29
10001454:	d5fc      	bpl.n	10001450 <GLCD_ClearScreen+0x88>
10001456:	3201      	adds	r2, #1
10001458:	682b      	ldr	r3, [r5, #0]
1000145a:	f5b2 3f96 	cmp.w	r2, #76800	@ 0x12c00
1000145e:	d1ef      	bne.n	10001440 <GLCD_ClearScreen+0x78>
10001460:	6820      	ldr	r0, [r4, #0]
10001462:	f040 0101 	orr.w	r1, r0, #1
10001466:	2000      	movs	r0, #0
10001468:	6021      	str	r1, [r4, #0]
1000146a:	bdb0      	pop	{r4, r5, r7, pc}

1000146c <GLCD_DrawChar>:
1000146c:	e92d 47f0 	stmdb	sp!, {r4, r5, r6, r7, r8, r9, sl, lr}
10001470:	f240 16b4 	movw	r6, #436	@ 0x1b4
10001474:	f6c3 0600 	movt	r6, #14336	@ 0x3800
10001478:	6837      	ldr	r7, [r6, #0]
1000147a:	2f00      	cmp	r7, #0
1000147c:	bf04      	itt	eq
1000147e:	f04f 30ff 	moveq.w	r0, #4294967295
10001482:	e8bd 87f0 	ldmiaeq.w	sp!, {r4, r5, r6, r7, r8, r9, sl, pc}
10001486:	687b      	ldr	r3, [r7, #4]
10001488:	f8b7 c000 	ldrh.w	ip, [r7]
1000148c:	1ad2      	subs	r2, r2, r3
1000148e:	f10c 0307 	add.w	r3, ip, #7
10001492:	08db      	lsrs	r3, r3, #3
10001494:	fb03 f202 	mul.w	r2, r3, r2
10001498:	887b      	ldrh	r3, [r7, #2]
1000149a:	68fc      	ldr	r4, [r7, #12]
1000149c:	fb02 f703 	mul.w	r7, r2, r3
100014a0:	f242 084c 	movw	r8, #8268	@ 0x204c
100014a4:	f246 0508 	movw	r5, #24584	@ 0x6008
100014a8:	4662      	mov	r2, ip
100014aa:	f2c4 0830 	movt	r8, #16432	@ 0x4030
100014ae:	f2c4 0520 	movt	r5, #16416	@ 0x4020
100014b2:	f001 fdb1 	bl	10003018 <GLCD_SetWindow>
100014b6:	f8d8 0000 	ldr.w	r0, [r8]
100014ba:	f020 0001 	bic.w	r0, r0, #1
100014be:	f8c8 0000 	str.w	r0, [r8]
100014c2:	2070      	movs	r0, #112	@ 0x70
100014c4:	6028      	str	r0, [r5, #0]
100014c6:	bf00      	nop
100014c8:	6868      	ldr	r0, [r5, #4]
100014ca:	0740      	lsls	r0, r0, #29
100014cc:	d5fc      	bpl.n	100014c8 <GLCD_DrawChar+0x5c>
100014ce:	6828      	ldr	r0, [r5, #0]
100014d0:	2000      	movs	r0, #0
100014d2:	6028      	str	r0, [r5, #0]
100014d4:	6868      	ldr	r0, [r5, #4]
100014d6:	0740      	lsls	r0, r0, #29
100014d8:	d5fc      	bpl.n	100014d4 <GLCD_DrawChar+0x68>
100014da:	6828      	ldr	r0, [r5, #0]
100014dc:	2022      	movs	r0, #34	@ 0x22
100014de:	6028      	str	r0, [r5, #0]
100014e0:	6868      	ldr	r0, [r5, #4]
100014e2:	0740      	lsls	r0, r0, #29
100014e4:	d5fc      	bpl.n	100014e0 <GLCD_DrawChar+0x74>
100014e6:	6828      	ldr	r0, [r5, #0]
100014e8:	f8d8 0000 	ldr.w	r0, [r8]
100014ec:	f040 0001 	orr.w	r0, r0, #1
100014f0:	f8c8 0000 	str.w	r0, [r8]
100014f4:	f8d8 0000 	ldr.w	r0, [r8]
100014f8:	f020 0001 	bic.w	r0, r0, #1
100014fc:	f8c8 0000 	str.w	r0, [r8]
10001500:	2072      	movs	r0, #114	@ 0x72
10001502:	6028      	str	r0, [r5, #0]
10001504:	6868      	ldr	r0, [r5, #4]
10001506:	0740      	lsls	r0, r0, #29
10001508:	d5fc      	bpl.n	10001504 <GLCD_DrawChar+0x98>
1000150a:	6828      	ldr	r0, [r5, #0]
1000150c:	6830      	ldr	r0, [r6, #0]
1000150e:	f8b0 c002 	ldrh.w	ip, [r0, #2]
10001512:	f1bc 0f00 	cmp.w	ip, #0
10001516:	d03c      	beq.n	10001592 <GLCD_DrawChar+0x126>
10001518:	8802      	ldrh	r2, [r0, #0]
1000151a:	f240 10bc 	movw	r0, #444	@ 0x1bc
1000151e:	f6c3 0000 	movt	r0, #14336	@ 0x3800
10001522:	f8b0 9000 	ldrh.w	r9, [r0]
10001526:	f240 0020 	movw	r0, #32
1000152a:	f6c3 0000 	movt	r0, #14336	@ 0x3800
1000152e:	f8b0 a000 	ldrh.w	sl, [r0]
10001532:	19e1      	adds	r1, r4, r7
10001534:	1e54      	subs	r4, r2, #1
10001536:	f04f 0e00 	mov.w	lr, #0
1000153a:	e005      	b.n	10001548 <GLCD_DrawChar+0xdc>
1000153c:	f10e 0e01 	add.w	lr, lr, #1
10001540:	45e6      	cmp	lr, ip
10001542:	f101 0101 	add.w	r1, r1, #1
10001546:	d024      	beq.n	10001592 <GLCD_DrawChar+0x126>
10001548:	2a00      	cmp	r2, #0
1000154a:	d0f7      	beq.n	1000153c <GLCD_DrawChar+0xd0>
1000154c:	2000      	movs	r0, #0
1000154e:	bf00      	nop
10001550:	780b      	ldrb	r3, [r1, #0]
10001552:	f000 0707 	and.w	r7, r0, #7
10001556:	40fb      	lsrs	r3, r7
10001558:	07db      	lsls	r3, r3, #31
1000155a:	464b      	mov	r3, r9
1000155c:	bf08      	it	eq
1000155e:	4653      	moveq	r3, sl
10001560:	0a1e      	lsrs	r6, r3, #8
10001562:	602e      	str	r6, [r5, #0]
10001564:	686e      	ldr	r6, [r5, #4]
10001566:	0776      	lsls	r6, r6, #29
10001568:	d5fc      	bpl.n	10001564 <GLCD_DrawChar+0xf8>
1000156a:	682e      	ldr	r6, [r5, #0]
1000156c:	b2db      	uxtb	r3, r3
1000156e:	602b      	str	r3, [r5, #0]
10001570:	686b      	ldr	r3, [r5, #4]
10001572:	075b      	lsls	r3, r3, #29
10001574:	d5fc      	bpl.n	10001570 <GLCD_DrawChar+0x104>
10001576:	682b      	ldr	r3, [r5, #0]
10001578:	1ffb      	subs	r3, r7, #7
1000157a:	fab3 f383 	clz	r3, r3
1000157e:	095b      	lsrs	r3, r3, #5
10001580:	1b06      	subs	r6, r0, r4
10001582:	bf18      	it	ne
10001584:	2601      	movne	r6, #1
10001586:	4033      	ands	r3, r6
10001588:	3001      	adds	r0, #1
1000158a:	4290      	cmp	r0, r2
1000158c:	4419      	add	r1, r3
1000158e:	d1df      	bne.n	10001550 <GLCD_DrawChar+0xe4>
10001590:	e7d4      	b.n	1000153c <GLCD_DrawChar+0xd0>
10001592:	f8d8 0000 	ldr.w	r0, [r8]
10001596:	f040 0001 	orr.w	r0, r0, #1
1000159a:	f8c8 0000 	str.w	r0, [r8]
1000159e:	2000      	movs	r0, #0
100015a0:	e8bd 87f0 	ldmia.w	sp!, {r4, r5, r6, r7, r8, r9, sl, pc}

100015a4 <GLCD_DrawString>:
100015a4:	4613      	mov	r3, r2
100015a6:	7812      	ldrb	r2, [r2, #0]
100015a8:	b1ba      	cbz	r2, 100015da <GLCD_DrawString+0x36>
100015aa:	b5f0      	push	{r4, r5, r6, r7, lr}
100015ac:	b081      	sub	sp, #4
100015ae:	f240 17b4 	movw	r7, #436	@ 0x1b4
100015b2:	460c      	mov	r4, r1
100015b4:	4605      	mov	r5, r0
100015b6:	1e5e      	subs	r6, r3, #1
100015b8:	f6c3 0700 	movt	r7, #14336	@ 0x3800
100015bc:	4628      	mov	r0, r5
100015be:	4621      	mov	r1, r4
100015c0:	f7ff ff54 	bl	1000146c <GLCD_DrawChar>
100015c4:	6838      	ldr	r0, [r7, #0]
100015c6:	78b2      	ldrb	r2, [r6, #2]
100015c8:	8800      	ldrh	r0, [r0, #0]
100015ca:	2a00      	cmp	r2, #0
100015cc:	4405      	add	r5, r0
100015ce:	f106 0601 	add.w	r6, r6, #1
100015d2:	d1f3      	bne.n	100015bc <GLCD_DrawString+0x18>
100015d4:	b001      	add	sp, #4
100015d6:	e8bd 40f0 	ldmia.w	sp!, {r4, r5, r6, r7, lr}
100015da:	2000      	movs	r0, #0
100015dc:	4770      	bx	lr
	...

100015e0 <GLCD_Initialize>:
100015e0:	b580      	push	{r7, lr}
100015e2:	f246 0008 	movw	r0, #24584	@ 0x6008
100015e6:	f2c4 0020 	movt	r0, #16416	@ 0x4020
100015ea:	2100      	movs	r1, #0
100015ec:	f840 1c04 	str.w	r1, [r0, #-4]
100015f0:	61c1      	str	r1, [r0, #28]
100015f2:	60c1      	str	r1, [r0, #12]
100015f4:	2103      	movs	r1, #3
100015f6:	6181      	str	r1, [r0, #24]
100015f8:	f240 1107 	movw	r1, #263	@ 0x107
100015fc:	f840 1c08 	str.w	r1, [r0, #-8]
10001600:	2202      	movs	r2, #2
10001602:	f242 014c 	movw	r1, #8268	@ 0x204c
10001606:	6082      	str	r2, [r0, #8]
10001608:	f2c4 0130 	movt	r1, #16432	@ 0x4030
1000160c:	f840 2c04 	str.w	r2, [r0, #-4]
10001610:	680a      	ldr	r2, [r1, #0]
10001612:	f240 0e1c 	movw	lr, #28
10001616:	f042 0209 	orr.w	r2, r2, #9
1000161a:	600a      	str	r2, [r1, #0]
1000161c:	680a      	ldr	r2, [r1, #0]
1000161e:	f6c3 0e00 	movt	lr, #14336	@ 0x3800
10001622:	f022 0270 	bic.w	r2, r2, #112	@ 0x70
10001626:	600a      	str	r2, [r1, #0]
10001628:	680a      	ldr	r2, [r1, #0]
1000162a:	f644 5cd3 	movw	ip, #19923	@ 0x4dd3
1000162e:	f022 0208 	bic.w	r2, r2, #8
10001632:	600a      	str	r2, [r1, #0]
10001634:	f8de 2000 	ldr.w	r2, [lr]
10001638:	f2c1 0c62 	movt	ip, #4194	@ 0x1062
1000163c:	f5b2 7f7a 	cmp.w	r2, #1000	@ 0x3e8
10001640:	d305      	bcc.n	1000164e <GLCD_Initialize+0x6e>
10001642:	fba2 230c 	umull	r2, r3, r2, ip
10001646:	099a      	lsrs	r2, r3, #6
10001648:	3a01      	subs	r2, #1
1000164a:	bf00      	nop
1000164c:	d1fc      	bne.n	10001648 <GLCD_Initialize+0x68>
1000164e:	680a      	ldr	r2, [r1, #0]
10001650:	f042 0208 	orr.w	r2, r2, #8
10001654:	600a      	str	r2, [r1, #0]
10001656:	f8de 2000 	ldr.w	r2, [lr]
1000165a:	f5b2 7f7a 	cmp.w	r2, #1000	@ 0x3e8
1000165e:	d308      	bcc.n	10001672 <GLCD_Initialize+0x92>
10001660:	fba2 230c 	umull	r2, r3, r2, ip
10001664:	099a      	lsrs	r2, r3, #6
10001666:	eb02 0282 	add.w	r2, r2, r2, lsl #2
1000166a:	4252      	negs	r2, r2
1000166c:	3201      	adds	r2, #1
1000166e:	bf00      	nop
10001670:	d3fc      	bcc.n	1000166c <GLCD_Initialize+0x8c>
10001672:	680a      	ldr	r2, [r1, #0]
10001674:	f022 0201 	bic.w	r2, r2, #1
10001678:	600a      	str	r2, [r1, #0]
1000167a:	2270      	movs	r2, #112	@ 0x70
1000167c:	6002      	str	r2, [r0, #0]
1000167e:	bf00      	nop
10001680:	6842      	ldr	r2, [r0, #4]
10001682:	0752      	lsls	r2, r2, #29
10001684:	d5fc      	bpl.n	10001680 <GLCD_Initialize+0xa0>
10001686:	6802      	ldr	r2, [r0, #0]
10001688:	2200      	movs	r2, #0
1000168a:	6002      	str	r2, [r0, #0]
1000168c:	6842      	ldr	r2, [r0, #4]
1000168e:	0752      	lsls	r2, r2, #29
10001690:	d5fc      	bpl.n	1000168c <GLCD_Initialize+0xac>
10001692:	6802      	ldr	r2, [r0, #0]
10001694:	22ea      	movs	r2, #234	@ 0xea
10001696:	6002      	str	r2, [r0, #0]
10001698:	6842      	ldr	r2, [r0, #4]
1000169a:	0752      	lsls	r2, r2, #29
1000169c:	d5fc      	bpl.n	10001698 <GLCD_Initialize+0xb8>
1000169e:	6802      	ldr	r2, [r0, #0]
100016a0:	680a      	ldr	r2, [r1, #0]
100016a2:	f042 0201 	orr.w	r2, r2, #1
100016a6:	600a      	str	r2, [r1, #0]
100016a8:	680a      	ldr	r2, [r1, #0]
100016aa:	f022 0201 	bic.w	r2, r2, #1
100016ae:	600a      	str	r2, [r1, #0]
100016b0:	2272      	movs	r2, #114	@ 0x72
100016b2:	6002      	str	r2, [r0, #0]
100016b4:	6842      	ldr	r2, [r0, #4]
100016b6:	0752      	lsls	r2, r2, #29
100016b8:	d5fc      	bpl.n	100016b4 <GLCD_Initialize+0xd4>
100016ba:	6802      	ldr	r2, [r0, #0]
100016bc:	2200      	movs	r2, #0
100016be:	6002      	str	r2, [r0, #0]
100016c0:	6842      	ldr	r2, [r0, #4]
100016c2:	0752      	lsls	r2, r2, #29
100016c4:	d5fc      	bpl.n	100016c0 <GLCD_Initialize+0xe0>
100016c6:	6802      	ldr	r2, [r0, #0]
100016c8:	2200      	movs	r2, #0
100016ca:	6002      	str	r2, [r0, #0]
100016cc:	6842      	ldr	r2, [r0, #4]
100016ce:	0752      	lsls	r2, r2, #29
100016d0:	d5fc      	bpl.n	100016cc <GLCD_Initialize+0xec>
100016d2:	6802      	ldr	r2, [r0, #0]
100016d4:	680a      	ldr	r2, [r1, #0]
100016d6:	f042 0201 	orr.w	r2, r2, #1
100016da:	600a      	str	r2, [r1, #0]
100016dc:	680a      	ldr	r2, [r1, #0]
100016de:	f022 0201 	bic.w	r2, r2, #1
100016e2:	600a      	str	r2, [r1, #0]
100016e4:	2270      	movs	r2, #112	@ 0x70
100016e6:	6002      	str	r2, [r0, #0]
100016e8:	6842      	ldr	r2, [r0, #4]
100016ea:	0752      	lsls	r2, r2, #29
100016ec:	d5fc      	bpl.n	100016e8 <GLCD_Initialize+0x108>
100016ee:	6802      	ldr	r2, [r0, #0]
100016f0:	2200      	movs	r2, #0
100016f2:	6002      	str	r2, [r0, #0]
100016f4:	6842      	ldr	r2, [r0, #4]
100016f6:	0752      	lsls	r2, r2, #29
100016f8:	d5fc      	bpl.n	100016f4 <GLCD_Initialize+0x114>
100016fa:	6802      	ldr	r2, [r0, #0]
100016fc:	22eb      	movs	r2, #235	@ 0xeb
100016fe:	6002      	str	r2, [r0, #0]
10001700:	6842      	ldr	r2, [r0, #4]
10001702:	0752      	lsls	r2, r2, #29
10001704:	d5fc      	bpl.n	10001700 <GLCD_Initialize+0x120>
10001706:	6802      	ldr	r2, [r0, #0]
10001708:	680a      	ldr	r2, [r1, #0]
1000170a:	f042 0201 	orr.w	r2, r2, #1
1000170e:	600a      	str	r2, [r1, #0]
10001710:	680a      	ldr	r2, [r1, #0]
10001712:	f022 0201 	bic.w	r2, r2, #1
10001716:	600a      	str	r2, [r1, #0]
10001718:	2272      	movs	r2, #114	@ 0x72
1000171a:	6002      	str	r2, [r0, #0]
1000171c:	6842      	ldr	r2, [r0, #4]
1000171e:	0752      	lsls	r2, r2, #29
10001720:	d5fc      	bpl.n	1000171c <GLCD_Initialize+0x13c>
10001722:	6802      	ldr	r2, [r0, #0]
10001724:	2200      	movs	r2, #0
10001726:	6002      	str	r2, [r0, #0]
10001728:	6842      	ldr	r2, [r0, #4]
1000172a:	0752      	lsls	r2, r2, #29
1000172c:	d5fc      	bpl.n	10001728 <GLCD_Initialize+0x148>
1000172e:	6802      	ldr	r2, [r0, #0]
10001730:	2220      	movs	r2, #32
10001732:	6002      	str	r2, [r0, #0]
10001734:	6842      	ldr	r2, [r0, #4]
10001736:	0752      	lsls	r2, r2, #29
10001738:	d5fc      	bpl.n	10001734 <GLCD_Initialize+0x154>
1000173a:	6802      	ldr	r2, [r0, #0]
1000173c:	680a      	ldr	r2, [r1, #0]
1000173e:	f042 0201 	orr.w	r2, r2, #1
10001742:	600a      	str	r2, [r1, #0]
10001744:	680a      	ldr	r2, [r1, #0]
10001746:	f022 0201 	bic.w	r2, r2, #1
1000174a:	600a      	str	r2, [r1, #0]
1000174c:	2270      	movs	r2, #112	@ 0x70
1000174e:	6002      	str	r2, [r0, #0]
10001750:	6842      	ldr	r2, [r0, #4]
10001752:	0752      	lsls	r2, r2, #29
10001754:	d5fc      	bpl.n	10001750 <GLCD_Initialize+0x170>
10001756:	6802      	ldr	r2, [r0, #0]
10001758:	2200      	movs	r2, #0
1000175a:	6002      	str	r2, [r0, #0]
1000175c:	6842      	ldr	r2, [r0, #4]
1000175e:	0752      	lsls	r2, r2, #29
10001760:	d5fc      	bpl.n	1000175c <GLCD_Initialize+0x17c>
10001762:	6802      	ldr	r2, [r0, #0]
10001764:	22ec      	movs	r2, #236	@ 0xec
10001766:	6002      	str	r2, [r0, #0]
10001768:	6842      	ldr	r2, [r0, #4]
1000176a:	0752      	lsls	r2, r2, #29
1000176c:	d5fc      	bpl.n	10001768 <GLCD_Initialize+0x188>
1000176e:	6802      	ldr	r2, [r0, #0]
10001770:	680a      	ldr	r2, [r1, #0]
10001772:	f042 0201 	orr.w	r2, r2, #1
10001776:	600a      	str	r2, [r1, #0]
10001778:	680a      	ldr	r2, [r1, #0]
1000177a:	f022 0201 	bic.w	r2, r2, #1
1000177e:	600a      	str	r2, [r1, #0]
10001780:	2272      	movs	r2, #114	@ 0x72
10001782:	6002      	str	r2, [r0, #0]
10001784:	6842      	ldr	r2, [r0, #4]
10001786:	0752      	lsls	r2, r2, #29
10001788:	d5fc      	bpl.n	10001784 <GLCD_Initialize+0x1a4>
1000178a:	6802      	ldr	r2, [r0, #0]
1000178c:	2200      	movs	r2, #0
1000178e:	6002      	str	r2, [r0, #0]
10001790:	6842      	ldr	r2, [r0, #4]
10001792:	0752      	lsls	r2, r2, #29
10001794:	d5fc      	bpl.n	10001790 <GLCD_Initialize+0x1b0>
10001796:	6802      	ldr	r2, [r0, #0]
10001798:	220c      	movs	r2, #12
1000179a:	6002      	str	r2, [r0, #0]
1000179c:	6842      	ldr	r2, [r0, #4]
1000179e:	0752      	lsls	r2, r2, #29
100017a0:	d5fc      	bpl.n	1000179c <GLCD_Initialize+0x1bc>
100017a2:	6802      	ldr	r2, [r0, #0]
100017a4:	680a      	ldr	r2, [r1, #0]
100017a6:	f042 0201 	orr.w	r2, r2, #1
100017aa:	600a      	str	r2, [r1, #0]
100017ac:	680a      	ldr	r2, [r1, #0]
100017ae:	f022 0201 	bic.w	r2, r2, #1
100017b2:	600a      	str	r2, [r1, #0]
100017b4:	2270      	movs	r2, #112	@ 0x70
100017b6:	6002      	str	r2, [r0, #0]
100017b8:	6842      	ldr	r2, [r0, #4]
100017ba:	0752      	lsls	r2, r2, #29
100017bc:	d5fc      	bpl.n	100017b8 <GLCD_Initialize+0x1d8>
100017be:	6802      	ldr	r2, [r0, #0]
100017c0:	2200      	movs	r2, #0
100017c2:	6002      	str	r2, [r0, #0]
100017c4:	6842      	ldr	r2, [r0, #4]
100017c6:	0752      	lsls	r2, r2, #29
100017c8:	d5fc      	bpl.n	100017c4 <GLCD_Initialize+0x1e4>
100017ca:	6802      	ldr	r2, [r0, #0]
100017cc:	22ed      	movs	r2, #237	@ 0xed
100017ce:	6002      	str	r2, [r0, #0]
100017d0:	6842      	ldr	r2, [r0, #4]
100017d2:	0752      	lsls	r2, r2, #29
100017d4:	d5fc      	bpl.n	100017d0 <GLCD_Initialize+0x1f0>
100017d6:	6802      	ldr	r2, [r0, #0]
100017d8:	680a      	ldr	r2, [r1, #0]
100017da:	f042 0201 	orr.w	r2, r2, #1
100017de:	600a      	str	r2, [r1, #0]
100017e0:	680a      	ldr	r2, [r1, #0]
100017e2:	f022 0201 	bic.w	r2, r2, #1
100017e6:	600a      	str	r2, [r1, #0]
100017e8:	2272      	movs	r2, #114	@ 0x72
100017ea:	6002      	str	r2, [r0, #0]
100017ec:	6842      	ldr	r2, [r0, #4]
100017ee:	0752      	lsls	r2, r2, #29
100017f0:	d5fc      	bpl.n	100017ec <GLCD_Initialize+0x20c>
100017f2:	6802      	ldr	r2, [r0, #0]
100017f4:	2200      	movs	r2, #0
100017f6:	6002      	str	r2, [r0, #0]
100017f8:	6842      	ldr	r2, [r0, #4]
100017fa:	0752      	lsls	r2, r2, #29
100017fc:	d5fc      	bpl.n	100017f8 <GLCD_Initialize+0x218>
100017fe:	6802      	ldr	r2, [r0, #0]
10001800:	22c7      	movs	r2, #199	@ 0xc7
10001802:	6002      	str	r2, [r0, #0]
10001804:	6842      	ldr	r2, [r0, #4]
10001806:	0752      	lsls	r2, r2, #29
10001808:	d5fc      	bpl.n	10001804 <GLCD_Initialize+0x224>
1000180a:	6802      	ldr	r2, [r0, #0]
1000180c:	680a      	ldr	r2, [r1, #0]
1000180e:	f042 0201 	orr.w	r2, r2, #1
10001812:	600a      	str	r2, [r1, #0]
10001814:	680a      	ldr	r2, [r1, #0]
10001816:	f022 0201 	bic.w	r2, r2, #1
1000181a:	600a      	str	r2, [r1, #0]
1000181c:	2270      	movs	r2, #112	@ 0x70
1000181e:	6002      	str	r2, [r0, #0]
10001820:	6842      	ldr	r2, [r0, #4]
10001822:	0752      	lsls	r2, r2, #29
10001824:	d5fc      	bpl.n	10001820 <GLCD_Initialize+0x240>
10001826:	6802      	ldr	r2, [r0, #0]
10001828:	2200      	movs	r2, #0
1000182a:	6002      	str	r2, [r0, #0]
1000182c:	6842      	ldr	r2, [r0, #4]
1000182e:	0752      	lsls	r2, r2, #29
10001830:	d5fc      	bpl.n	1000182c <GLCD_Initialize+0x24c>
10001832:	6802      	ldr	r2, [r0, #0]
10001834:	22e8      	movs	r2, #232	@ 0xe8
10001836:	6002      	str	r2, [r0, #0]
10001838:	6842      	ldr	r2, [r0, #4]
1000183a:	0752      	lsls	r2, r2, #29
1000183c:	d5fc      	bpl.n	10001838 <GLCD_Initialize+0x258>
1000183e:	6802      	ldr	r2, [r0, #0]
10001840:	680a      	ldr	r2, [r1, #0]
10001842:	f042 0201 	orr.w	r2, r2, #1
10001846:	600a      	str	r2, [r1, #0]
10001848:	680a      	ldr	r2, [r1, #0]
1000184a:	f022 0201 	bic.w	r2, r2, #1
1000184e:	600a      	str	r2, [r1, #0]
10001850:	2272      	movs	r2, #114	@ 0x72
10001852:	6002      	str	r2, [r0, #0]
10001854:	6842      	ldr	r2, [r0, #4]
10001856:	0752      	lsls	r2, r2, #29
10001858:	d5fc      	bpl.n	10001854 <GLCD_Initialize+0x274>
1000185a:	6802      	ldr	r2, [r0, #0]
1000185c:	2200      	movs	r2, #0
1000185e:	6002      	str	r2, [r0, #0]
10001860:	6842      	ldr	r2, [r0, #4]
10001862:	0752      	lsls	r2, r2, #29
10001864:	d5fc      	bpl.n	10001860 <GLCD_Initialize+0x280>
10001866:	6802      	ldr	r2, [r0, #0]
10001868:	2238      	movs	r2, #56	@ 0x38
1000186a:	6002      	str	r2, [r0, #0]
1000186c:	6842      	ldr	r2, [r0, #4]
1000186e:	0752      	lsls	r2, r2, #29
10001870:	d5fc      	bpl.n	1000186c <GLCD_Initialize+0x28c>
10001872:	6802      	ldr	r2, [r0, #0]
10001874:	680a      	ldr	r2, [r1, #0]
10001876:	f042 0201 	orr.w	r2, r2, #1
1000187a:	600a      	str	r2, [r1, #0]
1000187c:	680a      	ldr	r2, [r1, #0]
1000187e:	f022 0201 	bic.w	r2, r2, #1
10001882:	600a      	str	r2, [r1, #0]
10001884:	2270      	movs	r2, #112	@ 0x70
10001886:	6002      	str	r2, [r0, #0]
10001888:	6842      	ldr	r2, [r0, #4]
1000188a:	0752      	lsls	r2, r2, #29
1000188c:	d5fc      	bpl.n	10001888 <GLCD_Initialize+0x2a8>
1000188e:	6802      	ldr	r2, [r0, #0]
10001890:	2200      	movs	r2, #0
10001892:	6002      	str	r2, [r0, #0]
10001894:	6842      	ldr	r2, [r0, #4]
10001896:	0752      	lsls	r2, r2, #29
10001898:	d5fc      	bpl.n	10001894 <GLCD_Initialize+0x2b4>
1000189a:	6802      	ldr	r2, [r0, #0]
1000189c:	22e9      	movs	r2, #233	@ 0xe9
1000189e:	6002      	str	r2, [r0, #0]
100018a0:	6842      	ldr	r2, [r0, #4]
100018a2:	0752      	lsls	r2, r2, #29
100018a4:	d5fc      	bpl.n	100018a0 <GLCD_Initialize+0x2c0>
100018a6:	6802      	ldr	r2, [r0, #0]
100018a8:	680a      	ldr	r2, [r1, #0]
100018aa:	f042 0201 	orr.w	r2, r2, #1
100018ae:	600a      	str	r2, [r1, #0]
100018b0:	680a      	ldr	r2, [r1, #0]
100018b2:	f022 0201 	bic.w	r2, r2, #1
100018b6:	600a      	str	r2, [r1, #0]
100018b8:	2272      	movs	r2, #114	@ 0x72
100018ba:	6002      	str	r2, [r0, #0]
100018bc:	6842      	ldr	r2, [r0, #4]
100018be:	0752      	lsls	r2, r2, #29
100018c0:	d5fc      	bpl.n	100018bc <GLCD_Initialize+0x2dc>
100018c2:	6802      	ldr	r2, [r0, #0]
100018c4:	2200      	movs	r2, #0
100018c6:	6002      	str	r2, [r0, #0]
100018c8:	6842      	ldr	r2, [r0, #4]
100018ca:	0752      	lsls	r2, r2, #29
100018cc:	d5fc      	bpl.n	100018c8 <GLCD_Initialize+0x2e8>
100018ce:	6802      	ldr	r2, [r0, #0]
100018d0:	2210      	movs	r2, #16
100018d2:	6002      	str	r2, [r0, #0]
100018d4:	6842      	ldr	r2, [r0, #4]
100018d6:	0752      	lsls	r2, r2, #29
100018d8:	d5fc      	bpl.n	100018d4 <GLCD_Initialize+0x2f4>
100018da:	6802      	ldr	r2, [r0, #0]
100018dc:	680a      	ldr	r2, [r1, #0]
100018de:	f042 0201 	orr.w	r2, r2, #1
100018e2:	600a      	str	r2, [r1, #0]
100018e4:	680a      	ldr	r2, [r1, #0]
100018e6:	f022 0201 	bic.w	r2, r2, #1
100018ea:	600a      	str	r2, [r1, #0]
100018ec:	2270      	movs	r2, #112	@ 0x70
100018ee:	6002      	str	r2, [r0, #0]
100018f0:	6842      	ldr	r2, [r0, #4]
100018f2:	0752      	lsls	r2, r2, #29
100018f4:	d5fc      	bpl.n	100018f0 <GLCD_Initialize+0x310>
100018f6:	6802      	ldr	r2, [r0, #0]
100018f8:	2200      	movs	r2, #0
100018fa:	6002      	str	r2, [r0, #0]
100018fc:	6842      	ldr	r2, [r0, #4]
100018fe:	0752      	lsls	r2, r2, #29
10001900:	d5fc      	bpl.n	100018fc <GLCD_Initialize+0x31c>
10001902:	6802      	ldr	r2, [r0, #0]
10001904:	22f1      	movs	r2, #241	@ 0xf1
10001906:	6002      	str	r2, [r0, #0]
10001908:	6842      	ldr	r2, [r0, #4]
1000190a:	0752      	lsls	r2, r2, #29
1000190c:	d5fc      	bpl.n	10001908 <GLCD_Initialize+0x328>
1000190e:	6802      	ldr	r2, [r0, #0]
10001910:	680a      	ldr	r2, [r1, #0]
10001912:	f042 0201 	orr.w	r2, r2, #1
10001916:	600a      	str	r2, [r1, #0]
10001918:	680a      	ldr	r2, [r1, #0]
1000191a:	f022 0201 	bic.w	r2, r2, #1
1000191e:	600a      	str	r2, [r1, #0]
10001920:	2272      	movs	r2, #114	@ 0x72
10001922:	6002      	str	r2, [r0, #0]
10001924:	6842      	ldr	r2, [r0, #4]
10001926:	0752      	lsls	r2, r2, #29
10001928:	d5fc      	bpl.n	10001924 <GLCD_Initialize+0x344>
1000192a:	6802      	ldr	r2, [r0, #0]
1000192c:	2200      	movs	r2, #0
1000192e:	6002      	str	r2, [r0, #0]
10001930:	6842      	ldr	r2, [r0, #4]
10001932:	0752      	lsls	r2, r2, #29
10001934:	d5fc      	bpl.n	10001930 <GLCD_Initialize+0x350>
10001936:	6802      	ldr	r2, [r0, #0]
10001938:	2201      	movs	r2, #1
1000193a:	6002      	str	r2, [r0, #0]
1000193c:	6842      	ldr	r2, [r0, #4]
1000193e:	0752      	lsls	r2, r2, #29
10001940:	d5fc      	bpl.n	1000193c <GLCD_Initialize+0x35c>
10001942:	6802      	ldr	r2, [r0, #0]
10001944:	680a      	ldr	r2, [r1, #0]
10001946:	f042 0201 	orr.w	r2, r2, #1
1000194a:	600a      	str	r2, [r1, #0]
1000194c:	680a      	ldr	r2, [r1, #0]
1000194e:	f022 0201 	bic.w	r2, r2, #1
10001952:	600a      	str	r2, [r1, #0]
10001954:	2270      	movs	r2, #112	@ 0x70
10001956:	6002      	str	r2, [r0, #0]
10001958:	6842      	ldr	r2, [r0, #4]
1000195a:	0752      	lsls	r2, r2, #29
1000195c:	d5fc      	bpl.n	10001958 <GLCD_Initialize+0x378>
1000195e:	6802      	ldr	r2, [r0, #0]
10001960:	2200      	movs	r2, #0
10001962:	6002      	str	r2, [r0, #0]
10001964:	6842      	ldr	r2, [r0, #4]
10001966:	0752      	lsls	r2, r2, #29
10001968:	d5fc      	bpl.n	10001964 <GLCD_Initialize+0x384>
1000196a:	6802      	ldr	r2, [r0, #0]
1000196c:	22f2      	movs	r2, #242	@ 0xf2
1000196e:	6002      	str	r2, [r0, #0]
10001970:	6842      	ldr	r2, [r0, #4]
10001972:	0752      	lsls	r2, r2, #29
10001974:	d5fc      	bpl.n	10001970 <GLCD_Initialize+0x390>
10001976:	6802      	ldr	r2, [r0, #0]
10001978:	680a      	ldr	r2, [r1, #0]
1000197a:	f042 0201 	orr.w	r2, r2, #1
1000197e:	600a      	str	r2, [r1, #0]
10001980:	680a      	ldr	r2, [r1, #0]
10001982:	f022 0201 	bic.w	r2, r2, #1
10001986:	600a      	str	r2, [r1, #0]
10001988:	2272      	movs	r2, #114	@ 0x72
1000198a:	6002      	str	r2, [r0, #0]
1000198c:	6842      	ldr	r2, [r0, #4]
1000198e:	0752      	lsls	r2, r2, #29
10001990:	d5fc      	bpl.n	1000198c <GLCD_Initialize+0x3ac>
10001992:	6802      	ldr	r2, [r0, #0]
10001994:	2200      	movs	r2, #0
10001996:	6002      	str	r2, [r0, #0]
10001998:	6842      	ldr	r2, [r0, #4]
1000199a:	0752      	lsls	r2, r2, #29
1000199c:	d5fc      	bpl.n	10001998 <GLCD_Initialize+0x3b8>
1000199e:	6802      	ldr	r2, [r0, #0]
100019a0:	2210      	movs	r2, #16
100019a2:	6002      	str	r2, [r0, #0]
100019a4:	6842      	ldr	r2, [r0, #4]
100019a6:	0752      	lsls	r2, r2, #29
100019a8:	d5fc      	bpl.n	100019a4 <GLCD_Initialize+0x3c4>
100019aa:	6802      	ldr	r2, [r0, #0]
100019ac:	680a      	ldr	r2, [r1, #0]
100019ae:	f042 0201 	orr.w	r2, r2, #1
100019b2:	600a      	str	r2, [r1, #0]
100019b4:	680a      	ldr	r2, [r1, #0]
100019b6:	f022 0201 	bic.w	r2, r2, #1
100019ba:	600a      	str	r2, [r1, #0]
100019bc:	2270      	movs	r2, #112	@ 0x70
100019be:	6002      	str	r2, [r0, #0]
100019c0:	6842      	ldr	r2, [r0, #4]
100019c2:	0752      	lsls	r2, r2, #29
100019c4:	d5fc      	bpl.n	100019c0 <GLCD_Initialize+0x3e0>
100019c6:	6802      	ldr	r2, [r0, #0]
100019c8:	2200      	movs	r2, #0
100019ca:	6002      	str	r2, [r0, #0]
100019cc:	6842      	ldr	r2, [r0, #4]
100019ce:	0752      	lsls	r2, r2, #29
100019d0:	d5fc      	bpl.n	100019cc <GLCD_Initialize+0x3ec>
100019d2:	6802      	ldr	r2, [r0, #0]
100019d4:	2240      	movs	r2, #64	@ 0x40
100019d6:	6002      	str	r2, [r0, #0]
100019d8:	6842      	ldr	r2, [r0, #4]
100019da:	0752      	lsls	r2, r2, #29
100019dc:	d5fc      	bpl.n	100019d8 <GLCD_Initialize+0x3f8>
100019de:	6802      	ldr	r2, [r0, #0]
100019e0:	680a      	ldr	r2, [r1, #0]
100019e2:	f042 0201 	orr.w	r2, r2, #1
100019e6:	600a      	str	r2, [r1, #0]
100019e8:	680a      	ldr	r2, [r1, #0]
100019ea:	f022 0201 	bic.w	r2, r2, #1
100019ee:	600a      	str	r2, [r1, #0]
100019f0:	2272      	movs	r2, #114	@ 0x72
100019f2:	6002      	str	r2, [r0, #0]
100019f4:	6842      	ldr	r2, [r0, #4]
100019f6:	0752      	lsls	r2, r2, #29
100019f8:	d5fc      	bpl.n	100019f4 <GLCD_Initialize+0x414>
100019fa:	6802      	ldr	r2, [r0, #0]
100019fc:	2200      	movs	r2, #0
100019fe:	6002      	str	r2, [r0, #0]
10001a00:	6842      	ldr	r2, [r0, #4]
10001a02:	0752      	lsls	r2, r2, #29
10001a04:	d5fc      	bpl.n	10001a00 <GLCD_Initialize+0x420>
10001a06:	6802      	ldr	r2, [r0, #0]
10001a08:	2201      	movs	r2, #1
10001a0a:	6002      	str	r2, [r0, #0]
10001a0c:	6842      	ldr	r2, [r0, #4]
10001a0e:	0752      	lsls	r2, r2, #29
10001a10:	d5fc      	bpl.n	10001a0c <GLCD_Initialize+0x42c>
10001a12:	6802      	ldr	r2, [r0, #0]
10001a14:	680a      	ldr	r2, [r1, #0]
10001a16:	f042 0201 	orr.w	r2, r2, #1
10001a1a:	600a      	str	r2, [r1, #0]
10001a1c:	680a      	ldr	r2, [r1, #0]
10001a1e:	f022 0201 	bic.w	r2, r2, #1
10001a22:	600a      	str	r2, [r1, #0]
10001a24:	2270      	movs	r2, #112	@ 0x70
10001a26:	6002      	str	r2, [r0, #0]
10001a28:	6842      	ldr	r2, [r0, #4]
10001a2a:	0752      	lsls	r2, r2, #29
10001a2c:	d5fc      	bpl.n	10001a28 <GLCD_Initialize+0x448>
10001a2e:	6802      	ldr	r2, [r0, #0]
10001a30:	2200      	movs	r2, #0
10001a32:	6002      	str	r2, [r0, #0]
10001a34:	6842      	ldr	r2, [r0, #4]
10001a36:	0752      	lsls	r2, r2, #29
10001a38:	d5fc      	bpl.n	10001a34 <GLCD_Initialize+0x454>
10001a3a:	6802      	ldr	r2, [r0, #0]
10001a3c:	2241      	movs	r2, #65	@ 0x41
10001a3e:	6002      	str	r2, [r0, #0]
10001a40:	6842      	ldr	r2, [r0, #4]
10001a42:	0752      	lsls	r2, r2, #29
10001a44:	d5fc      	bpl.n	10001a40 <GLCD_Initialize+0x460>
10001a46:	6802      	ldr	r2, [r0, #0]
10001a48:	680a      	ldr	r2, [r1, #0]
10001a4a:	f042 0201 	orr.w	r2, r2, #1
10001a4e:	600a      	str	r2, [r1, #0]
10001a50:	680a      	ldr	r2, [r1, #0]
10001a52:	f022 0201 	bic.w	r2, r2, #1
10001a56:	600a      	str	r2, [r1, #0]
10001a58:	2272      	movs	r2, #114	@ 0x72
10001a5a:	6002      	str	r2, [r0, #0]
10001a5c:	6842      	ldr	r2, [r0, #4]
10001a5e:	0752      	lsls	r2, r2, #29
10001a60:	d5fc      	bpl.n	10001a5c <GLCD_Initialize+0x47c>
10001a62:	6802      	ldr	r2, [r0, #0]
10001a64:	2200      	movs	r2, #0
10001a66:	6002      	str	r2, [r0, #0]
10001a68:	6842      	ldr	r2, [r0, #4]
10001a6a:	0752      	lsls	r2, r2, #29
10001a6c:	d5fc      	bpl.n	10001a68 <GLCD_Initialize+0x488>
10001a6e:	6802      	ldr	r2, [r0, #0]
10001a70:	2200      	movs	r2, #0
10001a72:	6002      	str	r2, [r0, #0]
10001a74:	6842      	ldr	r2, [r0, #4]
10001a76:	0752      	lsls	r2, r2, #29
10001a78:	d5fc      	bpl.n	10001a74 <GLCD_Initialize+0x494>
10001a7a:	6802      	ldr	r2, [r0, #0]
10001a7c:	680a      	ldr	r2, [r1, #0]
10001a7e:	f042 0201 	orr.w	r2, r2, #1
10001a82:	600a      	str	r2, [r1, #0]
10001a84:	680a      	ldr	r2, [r1, #0]
10001a86:	f022 0201 	bic.w	r2, r2, #1
10001a8a:	600a      	str	r2, [r1, #0]
10001a8c:	2270      	movs	r2, #112	@ 0x70
10001a8e:	6002      	str	r2, [r0, #0]
10001a90:	6842      	ldr	r2, [r0, #4]
10001a92:	0752      	lsls	r2, r2, #29
10001a94:	d5fc      	bpl.n	10001a90 <GLCD_Initialize+0x4b0>
10001a96:	6802      	ldr	r2, [r0, #0]
10001a98:	2200      	movs	r2, #0
10001a9a:	6002      	str	r2, [r0, #0]
10001a9c:	6842      	ldr	r2, [r0, #4]
10001a9e:	0752      	lsls	r2, r2, #29
10001aa0:	d5fc      	bpl.n	10001a9c <GLCD_Initialize+0x4bc>
10001aa2:	6802      	ldr	r2, [r0, #0]
10001aa4:	2242      	movs	r2, #66	@ 0x42
10001aa6:	6002      	str	r2, [r0, #0]
10001aa8:	6842      	ldr	r2, [r0, #4]
10001aaa:	0752      	lsls	r2, r2, #29
10001aac:	d5fc      	bpl.n	10001aa8 <GLCD_Initialize+0x4c8>
10001aae:	6802      	ldr	r2, [r0, #0]
10001ab0:	680a      	ldr	r2, [r1, #0]
10001ab2:	f042 0201 	orr.w	r2, r2, #1
10001ab6:	600a      	str	r2, [r1, #0]
10001ab8:	680a      	ldr	r2, [r1, #0]
10001aba:	f022 0201 	bic.w	r2, r2, #1
10001abe:	600a      	str	r2, [r1, #0]
10001ac0:	2272      	movs	r2, #114	@ 0x72
10001ac2:	6002      	str	r2, [r0, #0]
10001ac4:	6842      	ldr	r2, [r0, #4]
10001ac6:	0752      	lsls	r2, r2, #29
10001ac8:	d5fc      	bpl.n	10001ac4 <GLCD_Initialize+0x4e4>
10001aca:	6802      	ldr	r2, [r0, #0]
10001acc:	2200      	movs	r2, #0
10001ace:	6002      	str	r2, [r0, #0]
10001ad0:	6842      	ldr	r2, [r0, #4]
10001ad2:	0752      	lsls	r2, r2, #29
10001ad4:	d5fc      	bpl.n	10001ad0 <GLCD_Initialize+0x4f0>
10001ad6:	6802      	ldr	r2, [r0, #0]
10001ad8:	2200      	movs	r2, #0
10001ada:	6002      	str	r2, [r0, #0]
10001adc:	6842      	ldr	r2, [r0, #4]
10001ade:	0752      	lsls	r2, r2, #29
10001ae0:	d5fc      	bpl.n	10001adc <GLCD_Initialize+0x4fc>
10001ae2:	6802      	ldr	r2, [r0, #0]
10001ae4:	680a      	ldr	r2, [r1, #0]
10001ae6:	f042 0201 	orr.w	r2, r2, #1
10001aea:	600a      	str	r2, [r1, #0]
10001aec:	680a      	ldr	r2, [r1, #0]
10001aee:	f022 0201 	bic.w	r2, r2, #1
10001af2:	600a      	str	r2, [r1, #0]
10001af4:	2270      	movs	r2, #112	@ 0x70
10001af6:	6002      	str	r2, [r0, #0]
10001af8:	6842      	ldr	r2, [r0, #4]
10001afa:	0752      	lsls	r2, r2, #29
10001afc:	d5fc      	bpl.n	10001af8 <GLCD_Initialize+0x518>
10001afe:	6802      	ldr	r2, [r0, #0]
10001b00:	2200      	movs	r2, #0
10001b02:	6002      	str	r2, [r0, #0]
10001b04:	6842      	ldr	r2, [r0, #4]
10001b06:	0752      	lsls	r2, r2, #29
10001b08:	d5fc      	bpl.n	10001b04 <GLCD_Initialize+0x524>
10001b0a:	6802      	ldr	r2, [r0, #0]
10001b0c:	2243      	movs	r2, #67	@ 0x43
10001b0e:	6002      	str	r2, [r0, #0]
10001b10:	6842      	ldr	r2, [r0, #4]
10001b12:	0752      	lsls	r2, r2, #29
10001b14:	d5fc      	bpl.n	10001b10 <GLCD_Initialize+0x530>
10001b16:	6802      	ldr	r2, [r0, #0]
10001b18:	680a      	ldr	r2, [r1, #0]
10001b1a:	f042 0201 	orr.w	r2, r2, #1
10001b1e:	600a      	str	r2, [r1, #0]
10001b20:	680a      	ldr	r2, [r1, #0]
10001b22:	f022 0201 	bic.w	r2, r2, #1
10001b26:	600a      	str	r2, [r1, #0]
10001b28:	2272      	movs	r2, #114	@ 0x72
10001b2a:	6002      	str	r2, [r0, #0]
10001b2c:	6842      	ldr	r2, [r0, #4]
10001b2e:	0752      	lsls	r2, r2, #29
10001b30:	d5fc      	bpl.n	10001b2c <GLCD_Initialize+0x54c>
10001b32:	6802      	ldr	r2, [r0, #0]
10001b34:	2200      	movs	r2, #0
10001b36:	6002      	str	r2, [r0, #0]
10001b38:	6842      	ldr	r2, [r0, #4]
10001b3a:	0752      	lsls	r2, r2, #29
10001b3c:	d5fc      	bpl.n	10001b38 <GLCD_Initialize+0x558>
10001b3e:	6802      	ldr	r2, [r0, #0]
10001b40:	2210      	movs	r2, #16
10001b42:	6002      	str	r2, [r0, #0]
10001b44:	6842      	ldr	r2, [r0, #4]
10001b46:	0752      	lsls	r2, r2, #29
10001b48:	d5fc      	bpl.n	10001b44 <GLCD_Initialize+0x564>
10001b4a:	6802      	ldr	r2, [r0, #0]
10001b4c:	680a      	ldr	r2, [r1, #0]
10001b4e:	f042 0201 	orr.w	r2, r2, #1
10001b52:	600a      	str	r2, [r1, #0]
10001b54:	680a      	ldr	r2, [r1, #0]
10001b56:	f022 0201 	bic.w	r2, r2, #1
10001b5a:	600a      	str	r2, [r1, #0]
10001b5c:	2270      	movs	r2, #112	@ 0x70
10001b5e:	6002      	str	r2, [r0, #0]
10001b60:	6842      	ldr	r2, [r0, #4]
10001b62:	0752      	lsls	r2, r2, #29
10001b64:	d5fc      	bpl.n	10001b60 <GLCD_Initialize+0x580>
10001b66:	6802      	ldr	r2, [r0, #0]
10001b68:	2200      	movs	r2, #0
10001b6a:	6002      	str	r2, [r0, #0]
10001b6c:	6842      	ldr	r2, [r0, #4]
10001b6e:	0752      	lsls	r2, r2, #29
10001b70:	d5fc      	bpl.n	10001b6c <GLCD_Initialize+0x58c>
10001b72:	6802      	ldr	r2, [r0, #0]
10001b74:	2244      	movs	r2, #68	@ 0x44
10001b76:	6002      	str	r2, [r0, #0]
10001b78:	6842      	ldr	r2, [r0, #4]
10001b7a:	0752      	lsls	r2, r2, #29
10001b7c:	d5fc      	bpl.n	10001b78 <GLCD_Initialize+0x598>
10001b7e:	6802      	ldr	r2, [r0, #0]
10001b80:	680a      	ldr	r2, [r1, #0]
10001b82:	f042 0201 	orr.w	r2, r2, #1
10001b86:	600a      	str	r2, [r1, #0]
10001b88:	680a      	ldr	r2, [r1, #0]
10001b8a:	f022 0201 	bic.w	r2, r2, #1
10001b8e:	600a      	str	r2, [r1, #0]
10001b90:	2272      	movs	r2, #114	@ 0x72
10001b92:	6002      	str	r2, [r0, #0]
10001b94:	6842      	ldr	r2, [r0, #4]
10001b96:	0752      	lsls	r2, r2, #29
10001b98:	d5fc      	bpl.n	10001b94 <GLCD_Initialize+0x5b4>
10001b9a:	6802      	ldr	r2, [r0, #0]
10001b9c:	2200      	movs	r2, #0
10001b9e:	6002      	str	r2, [r0, #0]
10001ba0:	6842      	ldr	r2, [r0, #4]
10001ba2:	0752      	lsls	r2, r2, #29
10001ba4:	d5fc      	bpl.n	10001ba0 <GLCD_Initialize+0x5c0>
10001ba6:	6802      	ldr	r2, [r0, #0]
10001ba8:	220e      	movs	r2, #14
10001baa:	6002      	str	r2, [r0, #0]
10001bac:	6842      	ldr	r2, [r0, #4]
10001bae:	0752      	lsls	r2, r2, #29
10001bb0:	d5fc      	bpl.n	10001bac <GLCD_Initialize+0x5cc>
10001bb2:	6802      	ldr	r2, [r0, #0]
10001bb4:	680a      	ldr	r2, [r1, #0]
10001bb6:	f042 0201 	orr.w	r2, r2, #1
10001bba:	600a      	str	r2, [r1, #0]
10001bbc:	680a      	ldr	r2, [r1, #0]
10001bbe:	f022 0201 	bic.w	r2, r2, #1
10001bc2:	600a      	str	r2, [r1, #0]
10001bc4:	2270      	movs	r2, #112	@ 0x70
10001bc6:	6002      	str	r2, [r0, #0]
10001bc8:	6842      	ldr	r2, [r0, #4]
10001bca:	0752      	lsls	r2, r2, #29
10001bcc:	d5fc      	bpl.n	10001bc8 <GLCD_Initialize+0x5e8>
10001bce:	6802      	ldr	r2, [r0, #0]
10001bd0:	2200      	movs	r2, #0
10001bd2:	6002      	str	r2, [r0, #0]
10001bd4:	6842      	ldr	r2, [r0, #4]
10001bd6:	0752      	lsls	r2, r2, #29
10001bd8:	d5fc      	bpl.n	10001bd4 <GLCD_Initialize+0x5f4>
10001bda:	6802      	ldr	r2, [r0, #0]
10001bdc:	2245      	movs	r2, #69	@ 0x45
10001bde:	6002      	str	r2, [r0, #0]
10001be0:	6842      	ldr	r2, [r0, #4]
10001be2:	0752      	lsls	r2, r2, #29
10001be4:	d5fc      	bpl.n	10001be0 <GLCD_Initialize+0x600>
10001be6:	6802      	ldr	r2, [r0, #0]
10001be8:	680a      	ldr	r2, [r1, #0]
10001bea:	f042 0201 	orr.w	r2, r2, #1
10001bee:	600a      	str	r2, [r1, #0]
10001bf0:	680a      	ldr	r2, [r1, #0]
10001bf2:	f022 0201 	bic.w	r2, r2, #1
10001bf6:	600a      	str	r2, [r1, #0]
10001bf8:	2272      	movs	r2, #114	@ 0x72
10001bfa:	6002      	str	r2, [r0, #0]
10001bfc:	6842      	ldr	r2, [r0, #4]
10001bfe:	0752      	lsls	r2, r2, #29
10001c00:	d5fc      	bpl.n	10001bfc <GLCD_Initialize+0x61c>
10001c02:	6802      	ldr	r2, [r0, #0]
10001c04:	2200      	movs	r2, #0
10001c06:	6002      	str	r2, [r0, #0]
10001c08:	6842      	ldr	r2, [r0, #4]
10001c0a:	0752      	lsls	r2, r2, #29
10001c0c:	d5fc      	bpl.n	10001c08 <GLCD_Initialize+0x628>
10001c0e:	6802      	ldr	r2, [r0, #0]
10001c10:	2224      	movs	r2, #36	@ 0x24
10001c12:	6002      	str	r2, [r0, #0]
10001c14:	6842      	ldr	r2, [r0, #4]
10001c16:	0752      	lsls	r2, r2, #29
10001c18:	d5fc      	bpl.n	10001c14 <GLCD_Initialize+0x634>
10001c1a:	6802      	ldr	r2, [r0, #0]
10001c1c:	680a      	ldr	r2, [r1, #0]
10001c1e:	f042 0201 	orr.w	r2, r2, #1
10001c22:	600a      	str	r2, [r1, #0]
10001c24:	680a      	ldr	r2, [r1, #0]
10001c26:	f022 0201 	bic.w	r2, r2, #1
10001c2a:	600a      	str	r2, [r1, #0]
10001c2c:	2270      	movs	r2, #112	@ 0x70
10001c2e:	6002      	str	r2, [r0, #0]
10001c30:	6842      	ldr	r2, [r0, #4]
10001c32:	0752      	lsls	r2, r2, #29
10001c34:	d5fc      	bpl.n	10001c30 <GLCD_Initialize+0x650>
10001c36:	6802      	ldr	r2, [r0, #0]
10001c38:	2200      	movs	r2, #0
10001c3a:	6002      	str	r2, [r0, #0]
10001c3c:	6842      	ldr	r2, [r0, #4]
10001c3e:	0752      	lsls	r2, r2, #29
10001c40:	d5fc      	bpl.n	10001c3c <GLCD_Initialize+0x65c>
10001c42:	6802      	ldr	r2, [r0, #0]
10001c44:	2246      	movs	r2, #70	@ 0x46
10001c46:	6002      	str	r2, [r0, #0]
10001c48:	6842      	ldr	r2, [r0, #4]
10001c4a:	0752      	lsls	r2, r2, #29
10001c4c:	d5fc      	bpl.n	10001c48 <GLCD_Initialize+0x668>
10001c4e:	6802      	ldr	r2, [r0, #0]
10001c50:	680a      	ldr	r2, [r1, #0]
10001c52:	f042 0201 	orr.w	r2, r2, #1
10001c56:	600a      	str	r2, [r1, #0]
10001c58:	680a      	ldr	r2, [r1, #0]
10001c5a:	f022 0201 	bic.w	r2, r2, #1
10001c5e:	600a      	str	r2, [r1, #0]
10001c60:	2272      	movs	r2, #114	@ 0x72
10001c62:	6002      	str	r2, [r0, #0]
10001c64:	6842      	ldr	r2, [r0, #4]
10001c66:	0752      	lsls	r2, r2, #29
10001c68:	d5fc      	bpl.n	10001c64 <GLCD_Initialize+0x684>
10001c6a:	6802      	ldr	r2, [r0, #0]
10001c6c:	2200      	movs	r2, #0
10001c6e:	6002      	str	r2, [r0, #0]
10001c70:	6842      	ldr	r2, [r0, #4]
10001c72:	0752      	lsls	r2, r2, #29
10001c74:	d5fc      	bpl.n	10001c70 <GLCD_Initialize+0x690>
10001c76:	6802      	ldr	r2, [r0, #0]
10001c78:	2204      	movs	r2, #4
10001c7a:	6002      	str	r2, [r0, #0]
10001c7c:	6842      	ldr	r2, [r0, #4]
10001c7e:	0752      	lsls	r2, r2, #29
10001c80:	d5fc      	bpl.n	10001c7c <GLCD_Initialize+0x69c>
10001c82:	6802      	ldr	r2, [r0, #0]
10001c84:	680a      	ldr	r2, [r1, #0]
10001c86:	f042 0201 	orr.w	r2, r2, #1
10001c8a:	600a      	str	r2, [r1, #0]
10001c8c:	680a      	ldr	r2, [r1, #0]
10001c8e:	f022 0201 	bic.w	r2, r2, #1
10001c92:	600a      	str	r2, [r1, #0]
10001c94:	2270      	movs	r2, #112	@ 0x70
10001c96:	6002      	str	r2, [r0, #0]
10001c98:	6842      	ldr	r2, [r0, #4]
10001c9a:	0752      	lsls	r2, r2, #29
10001c9c:	d5fc      	bpl.n	10001c98 <GLCD_Initialize+0x6b8>
10001c9e:	6802      	ldr	r2, [r0, #0]
10001ca0:	2200      	movs	r2, #0
10001ca2:	6002      	str	r2, [r0, #0]
10001ca4:	6842      	ldr	r2, [r0, #4]
10001ca6:	0752      	lsls	r2, r2, #29
10001ca8:	d5fc      	bpl.n	10001ca4 <GLCD_Initialize+0x6c4>
10001caa:	6802      	ldr	r2, [r0, #0]
10001cac:	2247      	movs	r2, #71	@ 0x47
10001cae:	6002      	str	r2, [r0, #0]
10001cb0:	6842      	ldr	r2, [r0, #4]
10001cb2:	0752      	lsls	r2, r2, #29
10001cb4:	d5fc      	bpl.n	10001cb0 <GLCD_Initialize+0x6d0>
10001cb6:	6802      	ldr	r2, [r0, #0]
10001cb8:	680a      	ldr	r2, [r1, #0]
10001cba:	f042 0201 	orr.w	r2, r2, #1
10001cbe:	600a      	str	r2, [r1, #0]
10001cc0:	680a      	ldr	r2, [r1, #0]
10001cc2:	f022 0201 	bic.w	r2, r2, #1
10001cc6:	600a      	str	r2, [r1, #0]
10001cc8:	2272      	movs	r2, #114	@ 0x72
10001cca:	6002      	str	r2, [r0, #0]
10001ccc:	6842      	ldr	r2, [r0, #4]
10001cce:	0752      	lsls	r2, r2, #29
10001cd0:	d5fc      	bpl.n	10001ccc <GLCD_Initialize+0x6ec>
10001cd2:	6802      	ldr	r2, [r0, #0]
10001cd4:	2200      	movs	r2, #0
10001cd6:	6002      	str	r2, [r0, #0]
10001cd8:	6842      	ldr	r2, [r0, #4]
10001cda:	0752      	lsls	r2, r2, #29
10001cdc:	d5fc      	bpl.n	10001cd8 <GLCD_Initialize+0x6f8>
10001cde:	6802      	ldr	r2, [r0, #0]
10001ce0:	2250      	movs	r2, #80	@ 0x50
10001ce2:	6002      	str	r2, [r0, #0]
10001ce4:	6842      	ldr	r2, [r0, #4]
10001ce6:	0752      	lsls	r2, r2, #29
10001ce8:	d5fc      	bpl.n	10001ce4 <GLCD_Initialize+0x704>
10001cea:	6802      	ldr	r2, [r0, #0]
10001cec:	680a      	ldr	r2, [r1, #0]
10001cee:	f042 0201 	orr.w	r2, r2, #1
10001cf2:	600a      	str	r2, [r1, #0]
10001cf4:	680a      	ldr	r2, [r1, #0]
10001cf6:	f022 0201 	bic.w	r2, r2, #1
10001cfa:	600a      	str	r2, [r1, #0]
10001cfc:	2270      	movs	r2, #112	@ 0x70
10001cfe:	6002      	str	r2, [r0, #0]
10001d00:	6842      	ldr	r2, [r0, #4]
10001d02:	0752      	lsls	r2, r2, #29
10001d04:	d5fc      	bpl.n	10001d00 <GLCD_Initialize+0x720>
10001d06:	6802      	ldr	r2, [r0, #0]
10001d08:	2200      	movs	r2, #0
10001d0a:	6002      	str	r2, [r0, #0]
10001d0c:	6842      	ldr	r2, [r0, #4]
10001d0e:	0752      	lsls	r2, r2, #29
10001d10:	d5fc      	bpl.n	10001d0c <GLCD_Initialize+0x72c>
10001d12:	6802      	ldr	r2, [r0, #0]
10001d14:	2248      	movs	r2, #72	@ 0x48
10001d16:	6002      	str	r2, [r0, #0]
10001d18:	6842      	ldr	r2, [r0, #4]
10001d1a:	0752      	lsls	r2, r2, #29
10001d1c:	d5fc      	bpl.n	10001d18 <GLCD_Initialize+0x738>
10001d1e:	6802      	ldr	r2, [r0, #0]
10001d20:	680a      	ldr	r2, [r1, #0]
10001d22:	f042 0201 	orr.w	r2, r2, #1
10001d26:	600a      	str	r2, [r1, #0]
10001d28:	680a      	ldr	r2, [r1, #0]
10001d2a:	f022 0201 	bic.w	r2, r2, #1
10001d2e:	600a      	str	r2, [r1, #0]
10001d30:	2272      	movs	r2, #114	@ 0x72
10001d32:	6002      	str	r2, [r0, #0]
10001d34:	6842      	ldr	r2, [r0, #4]
10001d36:	0752      	lsls	r2, r2, #29
10001d38:	d5fc      	bpl.n	10001d34 <GLCD_Initialize+0x754>
10001d3a:	6802      	ldr	r2, [r0, #0]
10001d3c:	2200      	movs	r2, #0
10001d3e:	6002      	str	r2, [r0, #0]
10001d40:	6842      	ldr	r2, [r0, #4]
10001d42:	0752      	lsls	r2, r2, #29
10001d44:	d5fc      	bpl.n	10001d40 <GLCD_Initialize+0x760>
10001d46:	6802      	ldr	r2, [r0, #0]
10001d48:	2202      	movs	r2, #2
10001d4a:	6002      	str	r2, [r0, #0]
10001d4c:	6842      	ldr	r2, [r0, #4]
10001d4e:	0752      	lsls	r2, r2, #29
10001d50:	d5fc      	bpl.n	10001d4c <GLCD_Initialize+0x76c>
10001d52:	6802      	ldr	r2, [r0, #0]
10001d54:	680a      	ldr	r2, [r1, #0]
10001d56:	f042 0201 	orr.w	r2, r2, #1
10001d5a:	600a      	str	r2, [r1, #0]
10001d5c:	680a      	ldr	r2, [r1, #0]
10001d5e:	f022 0201 	bic.w	r2, r2, #1
10001d62:	600a      	str	r2, [r1, #0]
10001d64:	2270      	movs	r2, #112	@ 0x70
10001d66:	6002      	str	r2, [r0, #0]
10001d68:	6842      	ldr	r2, [r0, #4]
10001d6a:	0752      	lsls	r2, r2, #29
10001d6c:	d5fc      	bpl.n	10001d68 <GLCD_Initialize+0x788>
10001d6e:	6802      	ldr	r2, [r0, #0]
10001d70:	2200      	movs	r2, #0
10001d72:	6002      	str	r2, [r0, #0]
10001d74:	6842      	ldr	r2, [r0, #4]
10001d76:	0752      	lsls	r2, r2, #29
10001d78:	d5fc      	bpl.n	10001d74 <GLCD_Initialize+0x794>
10001d7a:	6802      	ldr	r2, [r0, #0]
10001d7c:	2249      	movs	r2, #73	@ 0x49
10001d7e:	6002      	str	r2, [r0, #0]
10001d80:	6842      	ldr	r2, [r0, #4]
10001d82:	0752      	lsls	r2, r2, #29
10001d84:	d5fc      	bpl.n	10001d80 <GLCD_Initialize+0x7a0>
10001d86:	6802      	ldr	r2, [r0, #0]
10001d88:	680a      	ldr	r2, [r1, #0]
10001d8a:	f042 0201 	orr.w	r2, r2, #1
10001d8e:	600a      	str	r2, [r1, #0]
10001d90:	680a      	ldr	r2, [r1, #0]
10001d92:	f022 0201 	bic.w	r2, r2, #1
10001d96:	600a      	str	r2, [r1, #0]
10001d98:	2272      	movs	r2, #114	@ 0x72
10001d9a:	6002      	str	r2, [r0, #0]
10001d9c:	6842      	ldr	r2, [r0, #4]
10001d9e:	0752      	lsls	r2, r2, #29
10001da0:	d5fc      	bpl.n	10001d9c <GLCD_Initialize+0x7bc>
10001da2:	6802      	ldr	r2, [r0, #0]
10001da4:	2200      	movs	r2, #0
10001da6:	6002      	str	r2, [r0, #0]
10001da8:	6842      	ldr	r2, [r0, #4]
10001daa:	0752      	lsls	r2, r2, #29
10001dac:	d5fc      	bpl.n	10001da8 <GLCD_Initialize+0x7c8>
10001dae:	6802      	ldr	r2, [r0, #0]
10001db0:	2213      	movs	r2, #19
10001db2:	6002      	str	r2, [r0, #0]
10001db4:	6842      	ldr	r2, [r0, #4]
10001db6:	0752      	lsls	r2, r2, #29
10001db8:	d5fc      	bpl.n	10001db4 <GLCD_Initialize+0x7d4>
10001dba:	6802      	ldr	r2, [r0, #0]
10001dbc:	680a      	ldr	r2, [r1, #0]
10001dbe:	f042 0201 	orr.w	r2, r2, #1
10001dc2:	600a      	str	r2, [r1, #0]
10001dc4:	680a      	ldr	r2, [r1, #0]
10001dc6:	f022 0201 	bic.w	r2, r2, #1
10001dca:	600a      	str	r2, [r1, #0]
10001dcc:	2270      	movs	r2, #112	@ 0x70
10001dce:	6002      	str	r2, [r0, #0]
10001dd0:	6842      	ldr	r2, [r0, #4]
10001dd2:	0752      	lsls	r2, r2, #29
10001dd4:	d5fc      	bpl.n	10001dd0 <GLCD_Initialize+0x7f0>
10001dd6:	6802      	ldr	r2, [r0, #0]
10001dd8:	2200      	movs	r2, #0
10001dda:	6002      	str	r2, [r0, #0]
10001ddc:	6842      	ldr	r2, [r0, #4]
10001dde:	0752      	lsls	r2, r2, #29
10001de0:	d5fc      	bpl.n	10001ddc <GLCD_Initialize+0x7fc>
10001de2:	6802      	ldr	r2, [r0, #0]
10001de4:	224a      	movs	r2, #74	@ 0x4a
10001de6:	6002      	str	r2, [r0, #0]
10001de8:	6842      	ldr	r2, [r0, #4]
10001dea:	0752      	lsls	r2, r2, #29
10001dec:	d5fc      	bpl.n	10001de8 <GLCD_Initialize+0x808>
10001dee:	6802      	ldr	r2, [r0, #0]
10001df0:	680a      	ldr	r2, [r1, #0]
10001df2:	f042 0201 	orr.w	r2, r2, #1
10001df6:	600a      	str	r2, [r1, #0]
10001df8:	680a      	ldr	r2, [r1, #0]
10001dfa:	f022 0201 	bic.w	r2, r2, #1
10001dfe:	600a      	str	r2, [r1, #0]
10001e00:	2272      	movs	r2, #114	@ 0x72
10001e02:	6002      	str	r2, [r0, #0]
10001e04:	6842      	ldr	r2, [r0, #4]
10001e06:	0752      	lsls	r2, r2, #29
10001e08:	d5fc      	bpl.n	10001e04 <GLCD_Initialize+0x824>
10001e0a:	6802      	ldr	r2, [r0, #0]
10001e0c:	2200      	movs	r2, #0
10001e0e:	6002      	str	r2, [r0, #0]
10001e10:	6842      	ldr	r2, [r0, #4]
10001e12:	0752      	lsls	r2, r2, #29
10001e14:	d5fc      	bpl.n	10001e10 <GLCD_Initialize+0x830>
10001e16:	6802      	ldr	r2, [r0, #0]
10001e18:	2219      	movs	r2, #25
10001e1a:	6002      	str	r2, [r0, #0]
10001e1c:	6842      	ldr	r2, [r0, #4]
10001e1e:	0752      	lsls	r2, r2, #29
10001e20:	d5fc      	bpl.n	10001e1c <GLCD_Initialize+0x83c>
10001e22:	6802      	ldr	r2, [r0, #0]
10001e24:	680a      	ldr	r2, [r1, #0]
10001e26:	f042 0201 	orr.w	r2, r2, #1
10001e2a:	600a      	str	r2, [r1, #0]
10001e2c:	680a      	ldr	r2, [r1, #0]
10001e2e:	f022 0201 	bic.w	r2, r2, #1
10001e32:	600a      	str	r2, [r1, #0]
10001e34:	2270      	movs	r2, #112	@ 0x70
10001e36:	6002      	str	r2, [r0, #0]
10001e38:	6842      	ldr	r2, [r0, #4]
10001e3a:	0752      	lsls	r2, r2, #29
10001e3c:	d5fc      	bpl.n	10001e38 <GLCD_Initialize+0x858>
10001e3e:	6802      	ldr	r2, [r0, #0]
10001e40:	2200      	movs	r2, #0
10001e42:	6002      	str	r2, [r0, #0]
10001e44:	6842      	ldr	r2, [r0, #4]
10001e46:	0752      	lsls	r2, r2, #29
10001e48:	d5fc      	bpl.n	10001e44 <GLCD_Initialize+0x864>
10001e4a:	6802      	ldr	r2, [r0, #0]
10001e4c:	224b      	movs	r2, #75	@ 0x4b
10001e4e:	6002      	str	r2, [r0, #0]
10001e50:	6842      	ldr	r2, [r0, #4]
10001e52:	0752      	lsls	r2, r2, #29
10001e54:	d5fc      	bpl.n	10001e50 <GLCD_Initialize+0x870>
10001e56:	6802      	ldr	r2, [r0, #0]
10001e58:	680a      	ldr	r2, [r1, #0]
10001e5a:	f042 0201 	orr.w	r2, r2, #1
10001e5e:	600a      	str	r2, [r1, #0]
10001e60:	680a      	ldr	r2, [r1, #0]
10001e62:	f022 0201 	bic.w	r2, r2, #1
10001e66:	600a      	str	r2, [r1, #0]
10001e68:	2272      	movs	r2, #114	@ 0x72
10001e6a:	6002      	str	r2, [r0, #0]
10001e6c:	6842      	ldr	r2, [r0, #4]
10001e6e:	0752      	lsls	r2, r2, #29
10001e70:	d5fc      	bpl.n	10001e6c <GLCD_Initialize+0x88c>
10001e72:	6802      	ldr	r2, [r0, #0]
10001e74:	2200      	movs	r2, #0
10001e76:	6002      	str	r2, [r0, #0]
10001e78:	6842      	ldr	r2, [r0, #4]
10001e7a:	0752      	lsls	r2, r2, #29
10001e7c:	d5fc      	bpl.n	10001e78 <GLCD_Initialize+0x898>
10001e7e:	6802      	ldr	r2, [r0, #0]
10001e80:	2219      	movs	r2, #25
10001e82:	6002      	str	r2, [r0, #0]
10001e84:	6842      	ldr	r2, [r0, #4]
10001e86:	0752      	lsls	r2, r2, #29
10001e88:	d5fc      	bpl.n	10001e84 <GLCD_Initialize+0x8a4>
10001e8a:	6802      	ldr	r2, [r0, #0]
10001e8c:	680a      	ldr	r2, [r1, #0]
10001e8e:	f042 0201 	orr.w	r2, r2, #1
10001e92:	600a      	str	r2, [r1, #0]
10001e94:	680a      	ldr	r2, [r1, #0]
10001e96:	f022 0201 	bic.w	r2, r2, #1
10001e9a:	600a      	str	r2, [r1, #0]
10001e9c:	2270      	movs	r2, #112	@ 0x70
10001e9e:	6002      	str	r2, [r0, #0]
10001ea0:	6842      	ldr	r2, [r0, #4]
10001ea2:	0752      	lsls	r2, r2, #29
10001ea4:	d5fc      	bpl.n	10001ea0 <GLCD_Initialize+0x8c0>
10001ea6:	6802      	ldr	r2, [r0, #0]
10001ea8:	2200      	movs	r2, #0
10001eaa:	6002      	str	r2, [r0, #0]
10001eac:	6842      	ldr	r2, [r0, #4]
10001eae:	0752      	lsls	r2, r2, #29
10001eb0:	d5fc      	bpl.n	10001eac <GLCD_Initialize+0x8cc>
10001eb2:	6802      	ldr	r2, [r0, #0]
10001eb4:	224c      	movs	r2, #76	@ 0x4c
10001eb6:	6002      	str	r2, [r0, #0]
10001eb8:	6842      	ldr	r2, [r0, #4]
10001eba:	0752      	lsls	r2, r2, #29
10001ebc:	d5fc      	bpl.n	10001eb8 <GLCD_Initialize+0x8d8>
10001ebe:	6802      	ldr	r2, [r0, #0]
10001ec0:	680a      	ldr	r2, [r1, #0]
10001ec2:	f042 0201 	orr.w	r2, r2, #1
10001ec6:	600a      	str	r2, [r1, #0]
10001ec8:	680a      	ldr	r2, [r1, #0]
10001eca:	f022 0201 	bic.w	r2, r2, #1
10001ece:	600a      	str	r2, [r1, #0]
10001ed0:	2272      	movs	r2, #114	@ 0x72
10001ed2:	6002      	str	r2, [r0, #0]
10001ed4:	6842      	ldr	r2, [r0, #4]
10001ed6:	0752      	lsls	r2, r2, #29
10001ed8:	d5fc      	bpl.n	10001ed4 <GLCD_Initialize+0x8f4>
10001eda:	6802      	ldr	r2, [r0, #0]
10001edc:	2200      	movs	r2, #0
10001ede:	6002      	str	r2, [r0, #0]
10001ee0:	6842      	ldr	r2, [r0, #4]
10001ee2:	0752      	lsls	r2, r2, #29
10001ee4:	d5fc      	bpl.n	10001ee0 <GLCD_Initialize+0x900>
10001ee6:	6802      	ldr	r2, [r0, #0]
10001ee8:	2216      	movs	r2, #22
10001eea:	6002      	str	r2, [r0, #0]
10001eec:	6842      	ldr	r2, [r0, #4]
10001eee:	0752      	lsls	r2, r2, #29
10001ef0:	d5fc      	bpl.n	10001eec <GLCD_Initialize+0x90c>
10001ef2:	6802      	ldr	r2, [r0, #0]
10001ef4:	680a      	ldr	r2, [r1, #0]
10001ef6:	f042 0201 	orr.w	r2, r2, #1
10001efa:	600a      	str	r2, [r1, #0]
10001efc:	680a      	ldr	r2, [r1, #0]
10001efe:	f022 0201 	bic.w	r2, r2, #1
10001f02:	600a      	str	r2, [r1, #0]
10001f04:	2270      	movs	r2, #112	@ 0x70
10001f06:	6002      	str	r2, [r0, #0]
10001f08:	6842      	ldr	r2, [r0, #4]
10001f0a:	0752      	lsls	r2, r2, #29
10001f0c:	d5fc      	bpl.n	10001f08 <GLCD_Initialize+0x928>
10001f0e:	6802      	ldr	r2, [r0, #0]
10001f10:	2200      	movs	r2, #0
10001f12:	6002      	str	r2, [r0, #0]
10001f14:	6842      	ldr	r2, [r0, #4]
10001f16:	0752      	lsls	r2, r2, #29
10001f18:	d5fc      	bpl.n	10001f14 <GLCD_Initialize+0x934>
10001f1a:	6802      	ldr	r2, [r0, #0]
10001f1c:	2250      	movs	r2, #80	@ 0x50
10001f1e:	6002      	str	r2, [r0, #0]
10001f20:	6842      	ldr	r2, [r0, #4]
10001f22:	0752      	lsls	r2, r2, #29
10001f24:	d5fc      	bpl.n	10001f20 <GLCD_Initialize+0x940>
10001f26:	6802      	ldr	r2, [r0, #0]
10001f28:	680a      	ldr	r2, [r1, #0]
10001f2a:	f042 0201 	orr.w	r2, r2, #1
10001f2e:	600a      	str	r2, [r1, #0]
10001f30:	680a      	ldr	r2, [r1, #0]
10001f32:	f022 0201 	bic.w	r2, r2, #1
10001f36:	600a      	str	r2, [r1, #0]
10001f38:	2272      	movs	r2, #114	@ 0x72
10001f3a:	6002      	str	r2, [r0, #0]
10001f3c:	6842      	ldr	r2, [r0, #4]
10001f3e:	0752      	lsls	r2, r2, #29
10001f40:	d5fc      	bpl.n	10001f3c <GLCD_Initialize+0x95c>
10001f42:	6802      	ldr	r2, [r0, #0]
10001f44:	2200      	movs	r2, #0
10001f46:	6002      	str	r2, [r0, #0]
10001f48:	6842      	ldr	r2, [r0, #4]
10001f4a:	0752      	lsls	r2, r2, #29
10001f4c:	d5fc      	bpl.n	10001f48 <GLCD_Initialize+0x968>
10001f4e:	6802      	ldr	r2, [r0, #0]
10001f50:	221b      	movs	r2, #27
10001f52:	6002      	str	r2, [r0, #0]
10001f54:	6842      	ldr	r2, [r0, #4]
10001f56:	0752      	lsls	r2, r2, #29
10001f58:	d5fc      	bpl.n	10001f54 <GLCD_Initialize+0x974>
10001f5a:	6802      	ldr	r2, [r0, #0]
10001f5c:	680a      	ldr	r2, [r1, #0]
10001f5e:	f042 0201 	orr.w	r2, r2, #1
10001f62:	600a      	str	r2, [r1, #0]
10001f64:	680a      	ldr	r2, [r1, #0]
10001f66:	f022 0201 	bic.w	r2, r2, #1
10001f6a:	600a      	str	r2, [r1, #0]
10001f6c:	2270      	movs	r2, #112	@ 0x70
10001f6e:	6002      	str	r2, [r0, #0]
10001f70:	6842      	ldr	r2, [r0, #4]
10001f72:	0752      	lsls	r2, r2, #29
10001f74:	d5fc      	bpl.n	10001f70 <GLCD_Initialize+0x990>
10001f76:	6802      	ldr	r2, [r0, #0]
10001f78:	2200      	movs	r2, #0
10001f7a:	6002      	str	r2, [r0, #0]
10001f7c:	6842      	ldr	r2, [r0, #4]
10001f7e:	0752      	lsls	r2, r2, #29
10001f80:	d5fc      	bpl.n	10001f7c <GLCD_Initialize+0x99c>
10001f82:	6802      	ldr	r2, [r0, #0]
10001f84:	2251      	movs	r2, #81	@ 0x51
10001f86:	6002      	str	r2, [r0, #0]
10001f88:	6842      	ldr	r2, [r0, #4]
10001f8a:	0752      	lsls	r2, r2, #29
10001f8c:	d5fc      	bpl.n	10001f88 <GLCD_Initialize+0x9a8>
10001f8e:	6802      	ldr	r2, [r0, #0]
10001f90:	680a      	ldr	r2, [r1, #0]
10001f92:	f042 0201 	orr.w	r2, r2, #1
10001f96:	600a      	str	r2, [r1, #0]
10001f98:	680a      	ldr	r2, [r1, #0]
10001f9a:	f022 0201 	bic.w	r2, r2, #1
10001f9e:	600a      	str	r2, [r1, #0]
10001fa0:	2272      	movs	r2, #114	@ 0x72
10001fa2:	6002      	str	r2, [r0, #0]
10001fa4:	6842      	ldr	r2, [r0, #4]
10001fa6:	0752      	lsls	r2, r2, #29
10001fa8:	d5fc      	bpl.n	10001fa4 <GLCD_Initialize+0x9c4>
10001faa:	6802      	ldr	r2, [r0, #0]
10001fac:	2200      	movs	r2, #0
10001fae:	6002      	str	r2, [r0, #0]
10001fb0:	6842      	ldr	r2, [r0, #4]
10001fb2:	0752      	lsls	r2, r2, #29
10001fb4:	d5fc      	bpl.n	10001fb0 <GLCD_Initialize+0x9d0>
10001fb6:	6802      	ldr	r2, [r0, #0]
10001fb8:	2231      	movs	r2, #49	@ 0x31
10001fba:	6002      	str	r2, [r0, #0]
10001fbc:	6842      	ldr	r2, [r0, #4]
10001fbe:	0752      	lsls	r2, r2, #29
10001fc0:	d5fc      	bpl.n	10001fbc <GLCD_Initialize+0x9dc>
10001fc2:	6802      	ldr	r2, [r0, #0]
10001fc4:	680a      	ldr	r2, [r1, #0]
10001fc6:	f042 0201 	orr.w	r2, r2, #1
10001fca:	600a      	str	r2, [r1, #0]
10001fcc:	680a      	ldr	r2, [r1, #0]
10001fce:	f022 0201 	bic.w	r2, r2, #1
10001fd2:	600a      	str	r2, [r1, #0]
10001fd4:	2270      	movs	r2, #112	@ 0x70
10001fd6:	6002      	str	r2, [r0, #0]
10001fd8:	6842      	ldr	r2, [r0, #4]
10001fda:	0752      	lsls	r2, r2, #29
10001fdc:	d5fc      	bpl.n	10001fd8 <GLCD_Initialize+0x9f8>
10001fde:	6802      	ldr	r2, [r0, #0]
10001fe0:	2200      	movs	r2, #0
10001fe2:	6002      	str	r2, [r0, #0]
10001fe4:	6842      	ldr	r2, [r0, #4]
10001fe6:	0752      	lsls	r2, r2, #29
10001fe8:	d5fc      	bpl.n	10001fe4 <GLCD_Initialize+0xa04>
10001fea:	6802      	ldr	r2, [r0, #0]
10001fec:	2252      	movs	r2, #82	@ 0x52
10001fee:	6002      	str	r2, [r0, #0]
10001ff0:	6842      	ldr	r2, [r0, #4]
10001ff2:	0752      	lsls	r2, r2, #29
10001ff4:	d5fc      	bpl.n	10001ff0 <GLCD_Initialize+0xa10>
10001ff6:	6802      	ldr	r2, [r0, #0]
10001ff8:	680a      	ldr	r2, [r1, #0]
10001ffa:	f042 0201 	orr.w	r2, r2, #1
10001ffe:	600a      	str	r2, [r1, #0]
10002000:	680a      	ldr	r2, [r1, #0]
10002002:	f022 0201 	bic.w	r2, r2, #1
10002006:	600a      	str	r2, [r1, #0]
10002008:	2272      	movs	r2, #114	@ 0x72
1000200a:	6002      	str	r2, [r0, #0]
1000200c:	6842      	ldr	r2, [r0, #4]
1000200e:	0752      	lsls	r2, r2, #29
10002010:	d5fc      	bpl.n	1000200c <GLCD_Initialize+0xa2c>
10002012:	6802      	ldr	r2, [r0, #0]
10002014:	2200      	movs	r2, #0
10002016:	6002      	str	r2, [r0, #0]
10002018:	6842      	ldr	r2, [r0, #4]
1000201a:	0752      	lsls	r2, r2, #29
1000201c:	d5fc      	bpl.n	10002018 <GLCD_Initialize+0xa38>
1000201e:	6802      	ldr	r2, [r0, #0]
10002020:	222f      	movs	r2, #47	@ 0x2f
10002022:	6002      	str	r2, [r0, #0]
10002024:	6842      	ldr	r2, [r0, #4]
10002026:	0752      	lsls	r2, r2, #29
10002028:	d5fc      	bpl.n	10002024 <GLCD_Initialize+0xa44>
1000202a:	6802      	ldr	r2, [r0, #0]
1000202c:	680a      	ldr	r2, [r1, #0]
1000202e:	f042 0201 	orr.w	r2, r2, #1
10002032:	600a      	str	r2, [r1, #0]
10002034:	680a      	ldr	r2, [r1, #0]
10002036:	f022 0201 	bic.w	r2, r2, #1
1000203a:	600a      	str	r2, [r1, #0]
1000203c:	2270      	movs	r2, #112	@ 0x70
1000203e:	6002      	str	r2, [r0, #0]
10002040:	6842      	ldr	r2, [r0, #4]
10002042:	0752      	lsls	r2, r2, #29
10002044:	d5fc      	bpl.n	10002040 <GLCD_Initialize+0xa60>
10002046:	6802      	ldr	r2, [r0, #0]
10002048:	2200      	movs	r2, #0
1000204a:	6002      	str	r2, [r0, #0]
1000204c:	6842      	ldr	r2, [r0, #4]
1000204e:	0752      	lsls	r2, r2, #29
10002050:	d5fc      	bpl.n	1000204c <GLCD_Initialize+0xa6c>
10002052:	6802      	ldr	r2, [r0, #0]
10002054:	2253      	movs	r2, #83	@ 0x53
10002056:	6002      	str	r2, [r0, #0]
10002058:	6842      	ldr	r2, [r0, #4]
1000205a:	0752      	lsls	r2, r2, #29
1000205c:	d5fc      	bpl.n	10002058 <GLCD_Initialize+0xa78>
1000205e:	6802      	ldr	r2, [r0, #0]
10002060:	680a      	ldr	r2, [r1, #0]
10002062:	f042 0201 	orr.w	r2, r2, #1
10002066:	600a      	str	r2, [r1, #0]
10002068:	680a      	ldr	r2, [r1, #0]
1000206a:	f022 0201 	bic.w	r2, r2, #1
1000206e:	600a      	str	r2, [r1, #0]
10002070:	2272      	movs	r2, #114	@ 0x72
10002072:	6002      	str	r2, [r0, #0]
10002074:	6842      	ldr	r2, [r0, #4]
10002076:	0752      	lsls	r2, r2, #29
10002078:	d5fc      	bpl.n	10002074 <GLCD_Initialize+0xa94>
1000207a:	6802      	ldr	r2, [r0, #0]
1000207c:	2200      	movs	r2, #0
1000207e:	6002      	str	r2, [r0, #0]
10002080:	6842      	ldr	r2, [r0, #4]
10002082:	0752      	lsls	r2, r2, #29
10002084:	d5fc      	bpl.n	10002080 <GLCD_Initialize+0xaa0>
10002086:	6802      	ldr	r2, [r0, #0]
10002088:	223f      	movs	r2, #63	@ 0x3f
1000208a:	6002      	str	r2, [r0, #0]
1000208c:	6842      	ldr	r2, [r0, #4]
1000208e:	0752      	lsls	r2, r2, #29
10002090:	d5fc      	bpl.n	1000208c <GLCD_Initialize+0xaac>
10002092:	6802      	ldr	r2, [r0, #0]
10002094:	680a      	ldr	r2, [r1, #0]
10002096:	f042 0201 	orr.w	r2, r2, #1
1000209a:	600a      	str	r2, [r1, #0]
1000209c:	680a      	ldr	r2, [r1, #0]
1000209e:	f022 0201 	bic.w	r2, r2, #1
100020a2:	600a      	str	r2, [r1, #0]
100020a4:	2270      	movs	r2, #112	@ 0x70
100020a6:	6002      	str	r2, [r0, #0]
100020a8:	6842      	ldr	r2, [r0, #4]
100020aa:	0752      	lsls	r2, r2, #29
100020ac:	d5fc      	bpl.n	100020a8 <GLCD_Initialize+0xac8>
100020ae:	6802      	ldr	r2, [r0, #0]
100020b0:	2200      	movs	r2, #0
100020b2:	6002      	str	r2, [r0, #0]
100020b4:	6842      	ldr	r2, [r0, #4]
100020b6:	0752      	lsls	r2, r2, #29
100020b8:	d5fc      	bpl.n	100020b4 <GLCD_Initialize+0xad4>
100020ba:	6802      	ldr	r2, [r0, #0]
100020bc:	2254      	movs	r2, #84	@ 0x54
100020be:	6002      	str	r2, [r0, #0]
100020c0:	6842      	ldr	r2, [r0, #4]
100020c2:	0752      	lsls	r2, r2, #29
100020c4:	d5fc      	bpl.n	100020c0 <GLCD_Initialize+0xae0>
100020c6:	6802      	ldr	r2, [r0, #0]
100020c8:	680a      	ldr	r2, [r1, #0]
100020ca:	f042 0201 	orr.w	r2, r2, #1
100020ce:	600a      	str	r2, [r1, #0]
100020d0:	680a      	ldr	r2, [r1, #0]
100020d2:	f022 0201 	bic.w	r2, r2, #1
100020d6:	600a      	str	r2, [r1, #0]
100020d8:	2272      	movs	r2, #114	@ 0x72
100020da:	6002      	str	r2, [r0, #0]
100020dc:	6842      	ldr	r2, [r0, #4]
100020de:	0752      	lsls	r2, r2, #29
100020e0:	d5fc      	bpl.n	100020dc <GLCD_Initialize+0xafc>
100020e2:	6802      	ldr	r2, [r0, #0]
100020e4:	2200      	movs	r2, #0
100020e6:	6002      	str	r2, [r0, #0]
100020e8:	6842      	ldr	r2, [r0, #4]
100020ea:	0752      	lsls	r2, r2, #29
100020ec:	d5fc      	bpl.n	100020e8 <GLCD_Initialize+0xb08>
100020ee:	6802      	ldr	r2, [r0, #0]
100020f0:	223f      	movs	r2, #63	@ 0x3f
100020f2:	6002      	str	r2, [r0, #0]
100020f4:	6842      	ldr	r2, [r0, #4]
100020f6:	0752      	lsls	r2, r2, #29
100020f8:	d5fc      	bpl.n	100020f4 <GLCD_Initialize+0xb14>
100020fa:	6802      	ldr	r2, [r0, #0]
100020fc:	680a      	ldr	r2, [r1, #0]
100020fe:	f042 0201 	orr.w	r2, r2, #1
10002102:	600a      	str	r2, [r1, #0]
10002104:	680a      	ldr	r2, [r1, #0]
10002106:	f022 0201 	bic.w	r2, r2, #1
1000210a:	600a      	str	r2, [r1, #0]
1000210c:	2270      	movs	r2, #112	@ 0x70
1000210e:	6002      	str	r2, [r0, #0]
10002110:	6842      	ldr	r2, [r0, #4]
10002112:	0752      	lsls	r2, r2, #29
10002114:	d5fc      	bpl.n	10002110 <GLCD_Initialize+0xb30>
10002116:	6802      	ldr	r2, [r0, #0]
10002118:	2200      	movs	r2, #0
1000211a:	6002      	str	r2, [r0, #0]
1000211c:	6842      	ldr	r2, [r0, #4]
1000211e:	0752      	lsls	r2, r2, #29
10002120:	d5fc      	bpl.n	1000211c <GLCD_Initialize+0xb3c>
10002122:	6802      	ldr	r2, [r0, #0]
10002124:	2255      	movs	r2, #85	@ 0x55
10002126:	6002      	str	r2, [r0, #0]
10002128:	6842      	ldr	r2, [r0, #4]
1000212a:	0752      	lsls	r2, r2, #29
1000212c:	d5fc      	bpl.n	10002128 <GLCD_Initialize+0xb48>
1000212e:	6802      	ldr	r2, [r0, #0]
10002130:	680a      	ldr	r2, [r1, #0]
10002132:	f042 0201 	orr.w	r2, r2, #1
10002136:	600a      	str	r2, [r1, #0]
10002138:	680a      	ldr	r2, [r1, #0]
1000213a:	f022 0201 	bic.w	r2, r2, #1
1000213e:	600a      	str	r2, [r1, #0]
10002140:	2272      	movs	r2, #114	@ 0x72
10002142:	6002      	str	r2, [r0, #0]
10002144:	6842      	ldr	r2, [r0, #4]
10002146:	0752      	lsls	r2, r2, #29
10002148:	d5fc      	bpl.n	10002144 <GLCD_Initialize+0xb64>
1000214a:	6802      	ldr	r2, [r0, #0]
1000214c:	2200      	movs	r2, #0
1000214e:	6002      	str	r2, [r0, #0]
10002150:	6842      	ldr	r2, [r0, #4]
10002152:	0752      	lsls	r2, r2, #29
10002154:	d5fc      	bpl.n	10002150 <GLCD_Initialize+0xb70>
10002156:	6802      	ldr	r2, [r0, #0]
10002158:	223e      	movs	r2, #62	@ 0x3e
1000215a:	6002      	str	r2, [r0, #0]
1000215c:	6842      	ldr	r2, [r0, #4]
1000215e:	0752      	lsls	r2, r2, #29
10002160:	d5fc      	bpl.n	1000215c <GLCD_Initialize+0xb7c>
10002162:	6802      	ldr	r2, [r0, #0]
10002164:	680a      	ldr	r2, [r1, #0]
10002166:	f042 0201 	orr.w	r2, r2, #1
1000216a:	600a      	str	r2, [r1, #0]
1000216c:	680a      	ldr	r2, [r1, #0]
1000216e:	f022 0201 	bic.w	r2, r2, #1
10002172:	600a      	str	r2, [r1, #0]
10002174:	2270      	movs	r2, #112	@ 0x70
10002176:	6002      	str	r2, [r0, #0]
10002178:	6842      	ldr	r2, [r0, #4]
1000217a:	0752      	lsls	r2, r2, #29
1000217c:	d5fc      	bpl.n	10002178 <GLCD_Initialize+0xb98>
1000217e:	6802      	ldr	r2, [r0, #0]
10002180:	2200      	movs	r2, #0
10002182:	6002      	str	r2, [r0, #0]
10002184:	6842      	ldr	r2, [r0, #4]
10002186:	0752      	lsls	r2, r2, #29
10002188:	d5fc      	bpl.n	10002184 <GLCD_Initialize+0xba4>
1000218a:	6802      	ldr	r2, [r0, #0]
1000218c:	2256      	movs	r2, #86	@ 0x56
1000218e:	6002      	str	r2, [r0, #0]
10002190:	6842      	ldr	r2, [r0, #4]
10002192:	0752      	lsls	r2, r2, #29
10002194:	d5fc      	bpl.n	10002190 <GLCD_Initialize+0xbb0>
10002196:	6802      	ldr	r2, [r0, #0]
10002198:	680a      	ldr	r2, [r1, #0]
1000219a:	f042 0201 	orr.w	r2, r2, #1
1000219e:	600a      	str	r2, [r1, #0]
100021a0:	680a      	ldr	r2, [r1, #0]
100021a2:	f022 0201 	bic.w	r2, r2, #1
100021a6:	600a      	str	r2, [r1, #0]
100021a8:	2272      	movs	r2, #114	@ 0x72
100021aa:	6002      	str	r2, [r0, #0]
100021ac:	6842      	ldr	r2, [r0, #4]
100021ae:	0752      	lsls	r2, r2, #29
100021b0:	d5fc      	bpl.n	100021ac <GLCD_Initialize+0xbcc>
100021b2:	6802      	ldr	r2, [r0, #0]
100021b4:	2200      	movs	r2, #0
100021b6:	6002      	str	r2, [r0, #0]
100021b8:	6842      	ldr	r2, [r0, #4]
100021ba:	0752      	lsls	r2, r2, #29
100021bc:	d5fc      	bpl.n	100021b8 <GLCD_Initialize+0xbd8>
100021be:	6802      	ldr	r2, [r0, #0]
100021c0:	222f      	movs	r2, #47	@ 0x2f
100021c2:	6002      	str	r2, [r0, #0]
100021c4:	6842      	ldr	r2, [r0, #4]
100021c6:	0752      	lsls	r2, r2, #29
100021c8:	d5fc      	bpl.n	100021c4 <GLCD_Initialize+0xbe4>
100021ca:	6802      	ldr	r2, [r0, #0]
100021cc:	680a      	ldr	r2, [r1, #0]
100021ce:	f042 0201 	orr.w	r2, r2, #1
100021d2:	600a      	str	r2, [r1, #0]
100021d4:	680a      	ldr	r2, [r1, #0]
100021d6:	f022 0201 	bic.w	r2, r2, #1
100021da:	600a      	str	r2, [r1, #0]
100021dc:	2270      	movs	r2, #112	@ 0x70
100021de:	6002      	str	r2, [r0, #0]
100021e0:	6842      	ldr	r2, [r0, #4]
100021e2:	0752      	lsls	r2, r2, #29
100021e4:	d5fc      	bpl.n	100021e0 <GLCD_Initialize+0xc00>
100021e6:	6802      	ldr	r2, [r0, #0]
100021e8:	2200      	movs	r2, #0
100021ea:	6002      	str	r2, [r0, #0]
100021ec:	6842      	ldr	r2, [r0, #4]
100021ee:	0752      	lsls	r2, r2, #29
100021f0:	d5fc      	bpl.n	100021ec <GLCD_Initialize+0xc0c>
100021f2:	6802      	ldr	r2, [r0, #0]
100021f4:	2257      	movs	r2, #87	@ 0x57
100021f6:	6002      	str	r2, [r0, #0]
100021f8:	6842      	ldr	r2, [r0, #4]
100021fa:	0752      	lsls	r2, r2, #29
100021fc:	d5fc      	bpl.n	100021f8 <GLCD_Initialize+0xc18>
100021fe:	6802      	ldr	r2, [r0, #0]
10002200:	680a      	ldr	r2, [r1, #0]
10002202:	f042 0201 	orr.w	r2, r2, #1
10002206:	600a      	str	r2, [r1, #0]
10002208:	680a      	ldr	r2, [r1, #0]
1000220a:	f022 0201 	bic.w	r2, r2, #1
1000220e:	600a      	str	r2, [r1, #0]
10002210:	2272      	movs	r2, #114	@ 0x72
10002212:	6002      	str	r2, [r0, #0]
10002214:	6842      	ldr	r2, [r0, #4]
10002216:	0752      	lsls	r2, r2, #29
10002218:	d5fc      	bpl.n	10002214 <GLCD_Initialize+0xc34>
1000221a:	6802      	ldr	r2, [r0, #0]
1000221c:	2200      	movs	r2, #0
1000221e:	6002      	str	r2, [r0, #0]
10002220:	6842      	ldr	r2, [r0, #4]
10002222:	0752      	lsls	r2, r2, #29
10002224:	d5fc      	bpl.n	10002220 <GLCD_Initialize+0xc40>
10002226:	6802      	ldr	r2, [r0, #0]
10002228:	227b      	movs	r2, #123	@ 0x7b
1000222a:	6002      	str	r2, [r0, #0]
1000222c:	6842      	ldr	r2, [r0, #4]
1000222e:	0752      	lsls	r2, r2, #29
10002230:	d5fc      	bpl.n	1000222c <GLCD_Initialize+0xc4c>
10002232:	6802      	ldr	r2, [r0, #0]
10002234:	680a      	ldr	r2, [r1, #0]
10002236:	f042 0201 	orr.w	r2, r2, #1
1000223a:	600a      	str	r2, [r1, #0]
1000223c:	680a      	ldr	r2, [r1, #0]
1000223e:	f022 0201 	bic.w	r2, r2, #1
10002242:	600a      	str	r2, [r1, #0]
10002244:	2270      	movs	r2, #112	@ 0x70
10002246:	6002      	str	r2, [r0, #0]
10002248:	6842      	ldr	r2, [r0, #4]
1000224a:	0752      	lsls	r2, r2, #29
1000224c:	d5fc      	bpl.n	10002248 <GLCD_Initialize+0xc68>
1000224e:	6802      	ldr	r2, [r0, #0]
10002250:	2200      	movs	r2, #0
10002252:	6002      	str	r2, [r0, #0]
10002254:	6842      	ldr	r2, [r0, #4]
10002256:	0752      	lsls	r2, r2, #29
10002258:	d5fc      	bpl.n	10002254 <GLCD_Initialize+0xc74>
1000225a:	6802      	ldr	r2, [r0, #0]
1000225c:	2258      	movs	r2, #88	@ 0x58
1000225e:	6002      	str	r2, [r0, #0]
10002260:	6842      	ldr	r2, [r0, #4]
10002262:	0752      	lsls	r2, r2, #29
10002264:	d5fc      	bpl.n	10002260 <GLCD_Initialize+0xc80>
10002266:	6802      	ldr	r2, [r0, #0]
10002268:	680a      	ldr	r2, [r1, #0]
1000226a:	f042 0201 	orr.w	r2, r2, #1
1000226e:	600a      	str	r2, [r1, #0]
10002270:	680a      	ldr	r2, [r1, #0]
10002272:	f022 0201 	bic.w	r2, r2, #1
10002276:	600a      	str	r2, [r1, #0]
10002278:	2272      	movs	r2, #114	@ 0x72
1000227a:	6002      	str	r2, [r0, #0]
1000227c:	6842      	ldr	r2, [r0, #4]
1000227e:	0752      	lsls	r2, r2, #29
10002280:	d5fc      	bpl.n	1000227c <GLCD_Initialize+0xc9c>
10002282:	6802      	ldr	r2, [r0, #0]
10002284:	2200      	movs	r2, #0
10002286:	6002      	str	r2, [r0, #0]
10002288:	6842      	ldr	r2, [r0, #4]
1000228a:	0752      	lsls	r2, r2, #29
1000228c:	d5fc      	bpl.n	10002288 <GLCD_Initialize+0xca8>
1000228e:	6802      	ldr	r2, [r0, #0]
10002290:	2209      	movs	r2, #9
10002292:	6002      	str	r2, [r0, #0]
10002294:	6842      	ldr	r2, [r0, #4]
10002296:	0752      	lsls	r2, r2, #29
10002298:	d5fc      	bpl.n	10002294 <GLCD_Initialize+0xcb4>
1000229a:	6802      	ldr	r2, [r0, #0]
1000229c:	680a      	ldr	r2, [r1, #0]
1000229e:	f042 0201 	orr.w	r2, r2, #1
100022a2:	600a      	str	r2, [r1, #0]
100022a4:	680a      	ldr	r2, [r1, #0]
100022a6:	f022 0201 	bic.w	r2, r2, #1
100022aa:	600a      	str	r2, [r1, #0]
100022ac:	2270      	movs	r2, #112	@ 0x70
100022ae:	6002      	str	r2, [r0, #0]
100022b0:	6842      	ldr	r2, [r0, #4]
100022b2:	0752      	lsls	r2, r2, #29
100022b4:	d5fc      	bpl.n	100022b0 <GLCD_Initialize+0xcd0>
100022b6:	6802      	ldr	r2, [r0, #0]
100022b8:	2200      	movs	r2, #0
100022ba:	6002      	str	r2, [r0, #0]
100022bc:	6842      	ldr	r2, [r0, #4]
100022be:	0752      	lsls	r2, r2, #29
100022c0:	d5fc      	bpl.n	100022bc <GLCD_Initialize+0xcdc>
100022c2:	6802      	ldr	r2, [r0, #0]
100022c4:	2259      	movs	r2, #89	@ 0x59
100022c6:	6002      	str	r2, [r0, #0]
100022c8:	6842      	ldr	r2, [r0, #4]
100022ca:	0752      	lsls	r2, r2, #29
100022cc:	d5fc      	bpl.n	100022c8 <GLCD_Initialize+0xce8>
100022ce:	6802      	ldr	r2, [r0, #0]
100022d0:	680a      	ldr	r2, [r1, #0]
100022d2:	f042 0201 	orr.w	r2, r2, #1
100022d6:	600a      	str	r2, [r1, #0]
100022d8:	680a      	ldr	r2, [r1, #0]
100022da:	f022 0201 	bic.w	r2, r2, #1
100022de:	600a      	str	r2, [r1, #0]
100022e0:	2272      	movs	r2, #114	@ 0x72
100022e2:	6002      	str	r2, [r0, #0]
100022e4:	6842      	ldr	r2, [r0, #4]
100022e6:	0752      	lsls	r2, r2, #29
100022e8:	d5fc      	bpl.n	100022e4 <GLCD_Initialize+0xd04>
100022ea:	6802      	ldr	r2, [r0, #0]
100022ec:	2200      	movs	r2, #0
100022ee:	6002      	str	r2, [r0, #0]
100022f0:	6842      	ldr	r2, [r0, #4]
100022f2:	0752      	lsls	r2, r2, #29
100022f4:	d5fc      	bpl.n	100022f0 <GLCD_Initialize+0xd10>
100022f6:	6802      	ldr	r2, [r0, #0]
100022f8:	2206      	movs	r2, #6
100022fa:	6002      	str	r2, [r0, #0]
100022fc:	6842      	ldr	r2, [r0, #4]
100022fe:	0752      	lsls	r2, r2, #29
10002300:	d5fc      	bpl.n	100022fc <GLCD_Initialize+0xd1c>
10002302:	6802      	ldr	r2, [r0, #0]
10002304:	680a      	ldr	r2, [r1, #0]
10002306:	f042 0201 	orr.w	r2, r2, #1
1000230a:	600a      	str	r2, [r1, #0]
1000230c:	680a      	ldr	r2, [r1, #0]
1000230e:	f022 0201 	bic.w	r2, r2, #1
10002312:	600a      	str	r2, [r1, #0]
10002314:	2270      	movs	r2, #112	@ 0x70
10002316:	6002      	str	r2, [r0, #0]
10002318:	6842      	ldr	r2, [r0, #4]
1000231a:	0752      	lsls	r2, r2, #29
1000231c:	d5fc      	bpl.n	10002318 <GLCD_Initialize+0xd38>
1000231e:	6802      	ldr	r2, [r0, #0]
10002320:	2200      	movs	r2, #0
10002322:	6002      	str	r2, [r0, #0]
10002324:	6842      	ldr	r2, [r0, #4]
10002326:	0752      	lsls	r2, r2, #29
10002328:	d5fc      	bpl.n	10002324 <GLCD_Initialize+0xd44>
1000232a:	6802      	ldr	r2, [r0, #0]
1000232c:	225a      	movs	r2, #90	@ 0x5a
1000232e:	6002      	str	r2, [r0, #0]
10002330:	6842      	ldr	r2, [r0, #4]
10002332:	0752      	lsls	r2, r2, #29
10002334:	d5fc      	bpl.n	10002330 <GLCD_Initialize+0xd50>
10002336:	6802      	ldr	r2, [r0, #0]
10002338:	680a      	ldr	r2, [r1, #0]
1000233a:	f042 0201 	orr.w	r2, r2, #1
1000233e:	600a      	str	r2, [r1, #0]
10002340:	680a      	ldr	r2, [r1, #0]
10002342:	f022 0201 	bic.w	r2, r2, #1
10002346:	600a      	str	r2, [r1, #0]
10002348:	2272      	movs	r2, #114	@ 0x72
1000234a:	6002      	str	r2, [r0, #0]
1000234c:	6842      	ldr	r2, [r0, #4]
1000234e:	0752      	lsls	r2, r2, #29
10002350:	d5fc      	bpl.n	1000234c <GLCD_Initialize+0xd6c>
10002352:	6802      	ldr	r2, [r0, #0]
10002354:	2200      	movs	r2, #0
10002356:	6002      	str	r2, [r0, #0]
10002358:	6842      	ldr	r2, [r0, #4]
1000235a:	0752      	lsls	r2, r2, #29
1000235c:	d5fc      	bpl.n	10002358 <GLCD_Initialize+0xd78>
1000235e:	6802      	ldr	r2, [r0, #0]
10002360:	2206      	movs	r2, #6
10002362:	6002      	str	r2, [r0, #0]
10002364:	6842      	ldr	r2, [r0, #4]
10002366:	0752      	lsls	r2, r2, #29
10002368:	d5fc      	bpl.n	10002364 <GLCD_Initialize+0xd84>
1000236a:	6802      	ldr	r2, [r0, #0]
1000236c:	680a      	ldr	r2, [r1, #0]
1000236e:	f042 0201 	orr.w	r2, r2, #1
10002372:	600a      	str	r2, [r1, #0]
10002374:	680a      	ldr	r2, [r1, #0]
10002376:	f022 0201 	bic.w	r2, r2, #1
1000237a:	600a      	str	r2, [r1, #0]
1000237c:	2270      	movs	r2, #112	@ 0x70
1000237e:	6002      	str	r2, [r0, #0]
10002380:	6842      	ldr	r2, [r0, #4]
10002382:	0752      	lsls	r2, r2, #29
10002384:	d5fc      	bpl.n	10002380 <GLCD_Initialize+0xda0>
10002386:	6802      	ldr	r2, [r0, #0]
10002388:	2200      	movs	r2, #0
1000238a:	6002      	str	r2, [r0, #0]
1000238c:	6842      	ldr	r2, [r0, #4]
1000238e:	0752      	lsls	r2, r2, #29
10002390:	d5fc      	bpl.n	1000238c <GLCD_Initialize+0xdac>
10002392:	6802      	ldr	r2, [r0, #0]
10002394:	225b      	movs	r2, #91	@ 0x5b
10002396:	6002      	str	r2, [r0, #0]
10002398:	6842      	ldr	r2, [r0, #4]
1000239a:	0752      	lsls	r2, r2, #29
1000239c:	d5fc      	bpl.n	10002398 <GLCD_Initialize+0xdb8>
1000239e:	6802      	ldr	r2, [r0, #0]
100023a0:	680a      	ldr	r2, [r1, #0]
100023a2:	f042 0201 	orr.w	r2, r2, #1
100023a6:	600a      	str	r2, [r1, #0]
100023a8:	680a      	ldr	r2, [r1, #0]
100023aa:	f022 0201 	bic.w	r2, r2, #1
100023ae:	600a      	str	r2, [r1, #0]
100023b0:	2272      	movs	r2, #114	@ 0x72
100023b2:	6002      	str	r2, [r0, #0]
100023b4:	6842      	ldr	r2, [r0, #4]
100023b6:	0752      	lsls	r2, r2, #29
100023b8:	d5fc      	bpl.n	100023b4 <GLCD_Initialize+0xdd4>
100023ba:	6802      	ldr	r2, [r0, #0]
100023bc:	2200      	movs	r2, #0
100023be:	6002      	str	r2, [r0, #0]
100023c0:	6842      	ldr	r2, [r0, #4]
100023c2:	0752      	lsls	r2, r2, #29
100023c4:	d5fc      	bpl.n	100023c0 <GLCD_Initialize+0xde0>
100023c6:	6802      	ldr	r2, [r0, #0]
100023c8:	220c      	movs	r2, #12
100023ca:	6002      	str	r2, [r0, #0]
100023cc:	6842      	ldr	r2, [r0, #4]
100023ce:	0752      	lsls	r2, r2, #29
100023d0:	d5fc      	bpl.n	100023cc <GLCD_Initialize+0xdec>
100023d2:	6802      	ldr	r2, [r0, #0]
100023d4:	680a      	ldr	r2, [r1, #0]
100023d6:	f042 0201 	orr.w	r2, r2, #1
100023da:	600a      	str	r2, [r1, #0]
100023dc:	680a      	ldr	r2, [r1, #0]
100023de:	f022 0201 	bic.w	r2, r2, #1
100023e2:	600a      	str	r2, [r1, #0]
100023e4:	2270      	movs	r2, #112	@ 0x70
100023e6:	6002      	str	r2, [r0, #0]
100023e8:	6842      	ldr	r2, [r0, #4]
100023ea:	0752      	lsls	r2, r2, #29
100023ec:	d5fc      	bpl.n	100023e8 <GLCD_Initialize+0xe08>
100023ee:	6802      	ldr	r2, [r0, #0]
100023f0:	2200      	movs	r2, #0
100023f2:	6002      	str	r2, [r0, #0]
100023f4:	6842      	ldr	r2, [r0, #4]
100023f6:	0752      	lsls	r2, r2, #29
100023f8:	d5fc      	bpl.n	100023f4 <GLCD_Initialize+0xe14>
100023fa:	6802      	ldr	r2, [r0, #0]
100023fc:	225c      	movs	r2, #92	@ 0x5c
100023fe:	6002      	str	r2, [r0, #0]
10002400:	6842      	ldr	r2, [r0, #4]
10002402:	0752      	lsls	r2, r2, #29
10002404:	d5fc      	bpl.n	10002400 <GLCD_Initialize+0xe20>
10002406:	6802      	ldr	r2, [r0, #0]
10002408:	680a      	ldr	r2, [r1, #0]
1000240a:	f042 0201 	orr.w	r2, r2, #1
1000240e:	600a      	str	r2, [r1, #0]
10002410:	680a      	ldr	r2, [r1, #0]
10002412:	f022 0201 	bic.w	r2, r2, #1
10002416:	600a      	str	r2, [r1, #0]
10002418:	2272      	movs	r2, #114	@ 0x72
1000241a:	6002      	str	r2, [r0, #0]
1000241c:	6842      	ldr	r2, [r0, #4]
1000241e:	0752      	lsls	r2, r2, #29
10002420:	d5fc      	bpl.n	1000241c <GLCD_Initialize+0xe3c>
10002422:	6802      	ldr	r2, [r0, #0]
10002424:	2200      	movs	r2, #0
10002426:	6002      	str	r2, [r0, #0]
10002428:	6842      	ldr	r2, [r0, #4]
1000242a:	0752      	lsls	r2, r2, #29
1000242c:	d5fc      	bpl.n	10002428 <GLCD_Initialize+0xe48>
1000242e:	6802      	ldr	r2, [r0, #0]
10002430:	221d      	movs	r2, #29
10002432:	6002      	str	r2, [r0, #0]
10002434:	6842      	ldr	r2, [r0, #4]
10002436:	0752      	lsls	r2, r2, #29
10002438:	d5fc      	bpl.n	10002434 <GLCD_Initialize+0xe54>
1000243a:	6802      	ldr	r2, [r0, #0]
1000243c:	680a      	ldr	r2, [r1, #0]
1000243e:	f042 0201 	orr.w	r2, r2, #1
10002442:	600a      	str	r2, [r1, #0]
10002444:	680a      	ldr	r2, [r1, #0]
10002446:	f022 0201 	bic.w	r2, r2, #1
1000244a:	600a      	str	r2, [r1, #0]
1000244c:	2270      	movs	r2, #112	@ 0x70
1000244e:	6002      	str	r2, [r0, #0]
10002450:	6842      	ldr	r2, [r0, #4]
10002452:	0752      	lsls	r2, r2, #29
10002454:	d5fc      	bpl.n	10002450 <GLCD_Initialize+0xe70>
10002456:	6802      	ldr	r2, [r0, #0]
10002458:	2200      	movs	r2, #0
1000245a:	6002      	str	r2, [r0, #0]
1000245c:	6842      	ldr	r2, [r0, #4]
1000245e:	0752      	lsls	r2, r2, #29
10002460:	d5fc      	bpl.n	1000245c <GLCD_Initialize+0xe7c>
10002462:	6802      	ldr	r2, [r0, #0]
10002464:	225d      	movs	r2, #93	@ 0x5d
10002466:	6002      	str	r2, [r0, #0]
10002468:	6842      	ldr	r2, [r0, #4]
1000246a:	0752      	lsls	r2, r2, #29
1000246c:	d5fc      	bpl.n	10002468 <GLCD_Initialize+0xe88>
1000246e:	6802      	ldr	r2, [r0, #0]
10002470:	680a      	ldr	r2, [r1, #0]
10002472:	f042 0201 	orr.w	r2, r2, #1
10002476:	600a      	str	r2, [r1, #0]
10002478:	680a      	ldr	r2, [r1, #0]
1000247a:	f022 0201 	bic.w	r2, r2, #1
1000247e:	600a      	str	r2, [r1, #0]
10002480:	2272      	movs	r2, #114	@ 0x72
10002482:	6002      	str	r2, [r0, #0]
10002484:	6842      	ldr	r2, [r0, #4]
10002486:	0752      	lsls	r2, r2, #29
10002488:	d5fc      	bpl.n	10002484 <GLCD_Initialize+0xea4>
1000248a:	6802      	ldr	r2, [r0, #0]
1000248c:	2200      	movs	r2, #0
1000248e:	6002      	str	r2, [r0, #0]
10002490:	6842      	ldr	r2, [r0, #4]
10002492:	0752      	lsls	r2, r2, #29
10002494:	d5fc      	bpl.n	10002490 <GLCD_Initialize+0xeb0>
10002496:	6802      	ldr	r2, [r0, #0]
10002498:	22cc      	movs	r2, #204	@ 0xcc
1000249a:	6002      	str	r2, [r0, #0]
1000249c:	6842      	ldr	r2, [r0, #4]
1000249e:	0752      	lsls	r2, r2, #29
100024a0:	d5fc      	bpl.n	1000249c <GLCD_Initialize+0xebc>
100024a2:	6802      	ldr	r2, [r0, #0]
100024a4:	680a      	ldr	r2, [r1, #0]
100024a6:	f042 0201 	orr.w	r2, r2, #1
100024aa:	600a      	str	r2, [r1, #0]
100024ac:	680a      	ldr	r2, [r1, #0]
100024ae:	f022 0201 	bic.w	r2, r2, #1
100024b2:	600a      	str	r2, [r1, #0]
100024b4:	2270      	movs	r2, #112	@ 0x70
100024b6:	6002      	str	r2, [r0, #0]
100024b8:	6842      	ldr	r2, [r0, #4]
100024ba:	0752      	lsls	r2, r2, #29
100024bc:	d5fc      	bpl.n	100024b8 <GLCD_Initialize+0xed8>
100024be:	6802      	ldr	r2, [r0, #0]
100024c0:	2200      	movs	r2, #0
100024c2:	6002      	str	r2, [r0, #0]
100024c4:	6842      	ldr	r2, [r0, #4]
100024c6:	0752      	lsls	r2, r2, #29
100024c8:	d5fc      	bpl.n	100024c4 <GLCD_Initialize+0xee4>
100024ca:	6802      	ldr	r2, [r0, #0]
100024cc:	221b      	movs	r2, #27
100024ce:	6002      	str	r2, [r0, #0]
100024d0:	6842      	ldr	r2, [r0, #4]
100024d2:	0752      	lsls	r2, r2, #29
100024d4:	d5fc      	bpl.n	100024d0 <GLCD_Initialize+0xef0>
100024d6:	6802      	ldr	r2, [r0, #0]
100024d8:	680a      	ldr	r2, [r1, #0]
100024da:	f042 0201 	orr.w	r2, r2, #1
100024de:	600a      	str	r2, [r1, #0]
100024e0:	680a      	ldr	r2, [r1, #0]
100024e2:	f022 0201 	bic.w	r2, r2, #1
100024e6:	600a      	str	r2, [r1, #0]
100024e8:	2272      	movs	r2, #114	@ 0x72
100024ea:	6002      	str	r2, [r0, #0]
100024ec:	6842      	ldr	r2, [r0, #4]
100024ee:	0752      	lsls	r2, r2, #29
100024f0:	d5fc      	bpl.n	100024ec <GLCD_Initialize+0xf0c>
100024f2:	6802      	ldr	r2, [r0, #0]
100024f4:	2200      	movs	r2, #0
100024f6:	6002      	str	r2, [r0, #0]
100024f8:	6842      	ldr	r2, [r0, #4]
100024fa:	0752      	lsls	r2, r2, #29
100024fc:	d5fc      	bpl.n	100024f8 <GLCD_Initialize+0xf18>
100024fe:	6802      	ldr	r2, [r0, #0]
10002500:	221b      	movs	r2, #27
10002502:	6002      	str	r2, [r0, #0]
10002504:	6842      	ldr	r2, [r0, #4]
10002506:	0752      	lsls	r2, r2, #29
10002508:	d5fc      	bpl.n	10002504 <GLCD_Initialize+0xf24>
1000250a:	6802      	ldr	r2, [r0, #0]
1000250c:	680a      	ldr	r2, [r1, #0]
1000250e:	f042 0201 	orr.w	r2, r2, #1
10002512:	600a      	str	r2, [r1, #0]
10002514:	680a      	ldr	r2, [r1, #0]
10002516:	f022 0201 	bic.w	r2, r2, #1
1000251a:	600a      	str	r2, [r1, #0]
1000251c:	2270      	movs	r2, #112	@ 0x70
1000251e:	6002      	str	r2, [r0, #0]
10002520:	6842      	ldr	r2, [r0, #4]
10002522:	0752      	lsls	r2, r2, #29
10002524:	d5fc      	bpl.n	10002520 <GLCD_Initialize+0xf40>
10002526:	6802      	ldr	r2, [r0, #0]
10002528:	2200      	movs	r2, #0
1000252a:	6002      	str	r2, [r0, #0]
1000252c:	6842      	ldr	r2, [r0, #4]
1000252e:	0752      	lsls	r2, r2, #29
10002530:	d5fc      	bpl.n	1000252c <GLCD_Initialize+0xf4c>
10002532:	6802      	ldr	r2, [r0, #0]
10002534:	221a      	movs	r2, #26
10002536:	6002      	str	r2, [r0, #0]
10002538:	6842      	ldr	r2, [r0, #4]
1000253a:	0752      	lsls	r2, r2, #29
1000253c:	d5fc      	bpl.n	10002538 <GLCD_Initialize+0xf58>
1000253e:	6802      	ldr	r2, [r0, #0]
10002540:	680a      	ldr	r2, [r1, #0]
10002542:	f042 0201 	orr.w	r2, r2, #1
10002546:	600a      	str	r2, [r1, #0]
10002548:	680a      	ldr	r2, [r1, #0]
1000254a:	f022 0201 	bic.w	r2, r2, #1
1000254e:	600a      	str	r2, [r1, #0]
10002550:	2272      	movs	r2, #114	@ 0x72
10002552:	6002      	str	r2, [r0, #0]
10002554:	6842      	ldr	r2, [r0, #4]
10002556:	0752      	lsls	r2, r2, #29
10002558:	d5fc      	bpl.n	10002554 <GLCD_Initialize+0xf74>
1000255a:	6802      	ldr	r2, [r0, #0]
1000255c:	2200      	movs	r2, #0
1000255e:	6002      	str	r2, [r0, #0]
10002560:	6842      	ldr	r2, [r0, #4]
10002562:	0752      	lsls	r2, r2, #29
10002564:	d5fc      	bpl.n	10002560 <GLCD_Initialize+0xf80>
10002566:	6802      	ldr	r2, [r0, #0]
10002568:	2201      	movs	r2, #1
1000256a:	6002      	str	r2, [r0, #0]
1000256c:	6842      	ldr	r2, [r0, #4]
1000256e:	0752      	lsls	r2, r2, #29
10002570:	d5fc      	bpl.n	1000256c <GLCD_Initialize+0xf8c>
10002572:	6802      	ldr	r2, [r0, #0]
10002574:	680a      	ldr	r2, [r1, #0]
10002576:	f042 0201 	orr.w	r2, r2, #1
1000257a:	600a      	str	r2, [r1, #0]
1000257c:	680a      	ldr	r2, [r1, #0]
1000257e:	f022 0201 	bic.w	r2, r2, #1
10002582:	600a      	str	r2, [r1, #0]
10002584:	2270      	movs	r2, #112	@ 0x70
10002586:	6002      	str	r2, [r0, #0]
10002588:	6842      	ldr	r2, [r0, #4]
1000258a:	0752      	lsls	r2, r2, #29
1000258c:	d5fc      	bpl.n	10002588 <GLCD_Initialize+0xfa8>
1000258e:	6802      	ldr	r2, [r0, #0]
10002590:	2200      	movs	r2, #0
10002592:	6002      	str	r2, [r0, #0]
10002594:	6842      	ldr	r2, [r0, #4]
10002596:	0752      	lsls	r2, r2, #29
10002598:	d5fc      	bpl.n	10002594 <GLCD_Initialize+0xfb4>
1000259a:	6802      	ldr	r2, [r0, #0]
1000259c:	2224      	movs	r2, #36	@ 0x24
1000259e:	6002      	str	r2, [r0, #0]
100025a0:	6842      	ldr	r2, [r0, #4]
100025a2:	0752      	lsls	r2, r2, #29
100025a4:	d5fc      	bpl.n	100025a0 <GLCD_Initialize+0xfc0>
100025a6:	6802      	ldr	r2, [r0, #0]
100025a8:	680a      	ldr	r2, [r1, #0]
100025aa:	f042 0201 	orr.w	r2, r2, #1
100025ae:	600a      	str	r2, [r1, #0]
100025b0:	680a      	ldr	r2, [r1, #0]
100025b2:	f022 0201 	bic.w	r2, r2, #1
100025b6:	600a      	str	r2, [r1, #0]
100025b8:	2272      	movs	r2, #114	@ 0x72
100025ba:	6002      	str	r2, [r0, #0]
100025bc:	6842      	ldr	r2, [r0, #4]
100025be:	0752      	lsls	r2, r2, #29
100025c0:	d5fc      	bpl.n	100025bc <GLCD_Initialize+0xfdc>
100025c2:	6802      	ldr	r2, [r0, #0]
100025c4:	2200      	movs	r2, #0
100025c6:	6002      	str	r2, [r0, #0]
100025c8:	6842      	ldr	r2, [r0, #4]
100025ca:	0752      	lsls	r2, r2, #29
100025cc:	d5fc      	bpl.n	100025c8 <GLCD_Initialize+0xfe8>
100025ce:	6802      	ldr	r2, [r0, #0]
100025d0:	222f      	movs	r2, #47	@ 0x2f
100025d2:	6002      	str	r2, [r0, #0]
100025d4:	6842      	ldr	r2, [r0, #4]
100025d6:	0752      	lsls	r2, r2, #29
100025d8:	d5fc      	bpl.n	100025d4 <GLCD_Initialize+0xff4>
100025da:	6802      	ldr	r2, [r0, #0]
100025dc:	680a      	ldr	r2, [r1, #0]
100025de:	f042 0201 	orr.w	r2, r2, #1
100025e2:	600a      	str	r2, [r1, #0]
100025e4:	680a      	ldr	r2, [r1, #0]
100025e6:	f022 0201 	bic.w	r2, r2, #1
100025ea:	600a      	str	r2, [r1, #0]
100025ec:	2270      	movs	r2, #112	@ 0x70
100025ee:	6002      	str	r2, [r0, #0]
100025f0:	6842      	ldr	r2, [r0, #4]
100025f2:	0752      	lsls	r2, r2, #29
100025f4:	d5fc      	bpl.n	100025f0 <GLCD_Initialize+0x1010>
100025f6:	6802      	ldr	r2, [r0, #0]
100025f8:	2200      	movs	r2, #0
100025fa:	6002      	str	r2, [r0, #0]
100025fc:	6842      	ldr	r2, [r0, #4]
100025fe:	0752      	lsls	r2, r2, #29
10002600:	d5fc      	bpl.n	100025fc <GLCD_Initialize+0x101c>
10002602:	6802      	ldr	r2, [r0, #0]
10002604:	2225      	movs	r2, #37	@ 0x25
10002606:	6002      	str	r2, [r0, #0]
10002608:	6842      	ldr	r2, [r0, #4]
1000260a:	0752      	lsls	r2, r2, #29
1000260c:	d5fc      	bpl.n	10002608 <GLCD_Initialize+0x1028>
1000260e:	6802      	ldr	r2, [r0, #0]
10002610:	680a      	ldr	r2, [r1, #0]
10002612:	f042 0201 	orr.w	r2, r2, #1
10002616:	600a      	str	r2, [r1, #0]
10002618:	680a      	ldr	r2, [r1, #0]
1000261a:	f022 0201 	bic.w	r2, r2, #1
1000261e:	600a      	str	r2, [r1, #0]
10002620:	2272      	movs	r2, #114	@ 0x72
10002622:	6002      	str	r2, [r0, #0]
10002624:	6842      	ldr	r2, [r0, #4]
10002626:	0752      	lsls	r2, r2, #29
10002628:	d5fc      	bpl.n	10002624 <GLCD_Initialize+0x1044>
1000262a:	6802      	ldr	r2, [r0, #0]
1000262c:	2200      	movs	r2, #0
1000262e:	6002      	str	r2, [r0, #0]
10002630:	6842      	ldr	r2, [r0, #4]
10002632:	0752      	lsls	r2, r2, #29
10002634:	d5fc      	bpl.n	10002630 <GLCD_Initialize+0x1050>
10002636:	6802      	ldr	r2, [r0, #0]
10002638:	2257      	movs	r2, #87	@ 0x57
1000263a:	6002      	str	r2, [r0, #0]
1000263c:	6842      	ldr	r2, [r0, #4]
1000263e:	0752      	lsls	r2, r2, #29
10002640:	d5fc      	bpl.n	1000263c <GLCD_Initialize+0x105c>
10002642:	6802      	ldr	r2, [r0, #0]
10002644:	680a      	ldr	r2, [r1, #0]
10002646:	f042 0201 	orr.w	r2, r2, #1
1000264a:	600a      	str	r2, [r1, #0]
1000264c:	680a      	ldr	r2, [r1, #0]
1000264e:	f022 0201 	bic.w	r2, r2, #1
10002652:	600a      	str	r2, [r1, #0]
10002654:	2270      	movs	r2, #112	@ 0x70
10002656:	6002      	str	r2, [r0, #0]
10002658:	6842      	ldr	r2, [r0, #4]
1000265a:	0752      	lsls	r2, r2, #29
1000265c:	d5fc      	bpl.n	10002658 <GLCD_Initialize+0x1078>
1000265e:	6802      	ldr	r2, [r0, #0]
10002660:	2200      	movs	r2, #0
10002662:	6002      	str	r2, [r0, #0]
10002664:	6842      	ldr	r2, [r0, #4]
10002666:	0752      	lsls	r2, r2, #29
10002668:	d5fc      	bpl.n	10002664 <GLCD_Initialize+0x1084>
1000266a:	6802      	ldr	r2, [r0, #0]
1000266c:	2223      	movs	r2, #35	@ 0x23
1000266e:	6002      	str	r2, [r0, #0]
10002670:	6842      	ldr	r2, [r0, #4]
10002672:	0752      	lsls	r2, r2, #29
10002674:	d5fc      	bpl.n	10002670 <GLCD_Initialize+0x1090>
10002676:	6802      	ldr	r2, [r0, #0]
10002678:	680a      	ldr	r2, [r1, #0]
1000267a:	f042 0201 	orr.w	r2, r2, #1
1000267e:	600a      	str	r2, [r1, #0]
10002680:	680a      	ldr	r2, [r1, #0]
10002682:	f022 0201 	bic.w	r2, r2, #1
10002686:	600a      	str	r2, [r1, #0]
10002688:	2272      	movs	r2, #114	@ 0x72
1000268a:	6002      	str	r2, [r0, #0]
1000268c:	6842      	ldr	r2, [r0, #4]
1000268e:	0752      	lsls	r2, r2, #29
10002690:	d5fc      	bpl.n	1000268c <GLCD_Initialize+0x10ac>
10002692:	6802      	ldr	r2, [r0, #0]
10002694:	2200      	movs	r2, #0
10002696:	6002      	str	r2, [r0, #0]
10002698:	6842      	ldr	r2, [r0, #4]
1000269a:	0752      	lsls	r2, r2, #29
1000269c:	d5fc      	bpl.n	10002698 <GLCD_Initialize+0x10b8>
1000269e:	6802      	ldr	r2, [r0, #0]
100026a0:	2288      	movs	r2, #136	@ 0x88
100026a2:	6002      	str	r2, [r0, #0]
100026a4:	6842      	ldr	r2, [r0, #4]
100026a6:	0752      	lsls	r2, r2, #29
100026a8:	d5fc      	bpl.n	100026a4 <GLCD_Initialize+0x10c4>
100026aa:	6802      	ldr	r2, [r0, #0]
100026ac:	680a      	ldr	r2, [r1, #0]
100026ae:	f042 0201 	orr.w	r2, r2, #1
100026b2:	600a      	str	r2, [r1, #0]
100026b4:	680a      	ldr	r2, [r1, #0]
100026b6:	f022 0201 	bic.w	r2, r2, #1
100026ba:	600a      	str	r2, [r1, #0]
100026bc:	2270      	movs	r2, #112	@ 0x70
100026be:	6002      	str	r2, [r0, #0]
100026c0:	6842      	ldr	r2, [r0, #4]
100026c2:	0752      	lsls	r2, r2, #29
100026c4:	d5fc      	bpl.n	100026c0 <GLCD_Initialize+0x10e0>
100026c6:	6802      	ldr	r2, [r0, #0]
100026c8:	2200      	movs	r2, #0
100026ca:	6002      	str	r2, [r0, #0]
100026cc:	6842      	ldr	r2, [r0, #4]
100026ce:	0752      	lsls	r2, r2, #29
100026d0:	d5fc      	bpl.n	100026cc <GLCD_Initialize+0x10ec>
100026d2:	6802      	ldr	r2, [r0, #0]
100026d4:	2218      	movs	r2, #24
100026d6:	6002      	str	r2, [r0, #0]
100026d8:	6842      	ldr	r2, [r0, #4]
100026da:	0752      	lsls	r2, r2, #29
100026dc:	d5fc      	bpl.n	100026d8 <GLCD_Initialize+0x10f8>
100026de:	6802      	ldr	r2, [r0, #0]
100026e0:	680a      	ldr	r2, [r1, #0]
100026e2:	f042 0201 	orr.w	r2, r2, #1
100026e6:	600a      	str	r2, [r1, #0]
100026e8:	680a      	ldr	r2, [r1, #0]
100026ea:	f022 0201 	bic.w	r2, r2, #1
100026ee:	600a      	str	r2, [r1, #0]
100026f0:	2272      	movs	r2, #114	@ 0x72
100026f2:	6002      	str	r2, [r0, #0]
100026f4:	6842      	ldr	r2, [r0, #4]
100026f6:	0752      	lsls	r2, r2, #29
100026f8:	d5fc      	bpl.n	100026f4 <GLCD_Initialize+0x1114>
100026fa:	6802      	ldr	r2, [r0, #0]
100026fc:	2200      	movs	r2, #0
100026fe:	6002      	str	r2, [r0, #0]
10002700:	6842      	ldr	r2, [r0, #4]
10002702:	0752      	lsls	r2, r2, #29
10002704:	d5fc      	bpl.n	10002700 <GLCD_Initialize+0x1120>
10002706:	6802      	ldr	r2, [r0, #0]
10002708:	2236      	movs	r2, #54	@ 0x36
1000270a:	6002      	str	r2, [r0, #0]
1000270c:	6842      	ldr	r2, [r0, #4]
1000270e:	0752      	lsls	r2, r2, #29
10002710:	d5fc      	bpl.n	1000270c <GLCD_Initialize+0x112c>
10002712:	6802      	ldr	r2, [r0, #0]
10002714:	680a      	ldr	r2, [r1, #0]
10002716:	f042 0201 	orr.w	r2, r2, #1
1000271a:	600a      	str	r2, [r1, #0]
1000271c:	680a      	ldr	r2, [r1, #0]
1000271e:	f022 0201 	bic.w	r2, r2, #1
10002722:	600a      	str	r2, [r1, #0]
10002724:	2270      	movs	r2, #112	@ 0x70
10002726:	6002      	str	r2, [r0, #0]
10002728:	6842      	ldr	r2, [r0, #4]
1000272a:	0752      	lsls	r2, r2, #29
1000272c:	d5fc      	bpl.n	10002728 <GLCD_Initialize+0x1148>
1000272e:	6802      	ldr	r2, [r0, #0]
10002730:	2200      	movs	r2, #0
10002732:	6002      	str	r2, [r0, #0]
10002734:	6842      	ldr	r2, [r0, #4]
10002736:	0752      	lsls	r2, r2, #29
10002738:	d5fc      	bpl.n	10002734 <GLCD_Initialize+0x1154>
1000273a:	6802      	ldr	r2, [r0, #0]
1000273c:	2219      	movs	r2, #25
1000273e:	6002      	str	r2, [r0, #0]
10002740:	6842      	ldr	r2, [r0, #4]
10002742:	0752      	lsls	r2, r2, #29
10002744:	d5fc      	bpl.n	10002740 <GLCD_Initialize+0x1160>
10002746:	6802      	ldr	r2, [r0, #0]
10002748:	680a      	ldr	r2, [r1, #0]
1000274a:	f042 0201 	orr.w	r2, r2, #1
1000274e:	600a      	str	r2, [r1, #0]
10002750:	680a      	ldr	r2, [r1, #0]
10002752:	f022 0201 	bic.w	r2, r2, #1
10002756:	600a      	str	r2, [r1, #0]
10002758:	2272      	movs	r2, #114	@ 0x72
1000275a:	6002      	str	r2, [r0, #0]
1000275c:	6842      	ldr	r2, [r0, #4]
1000275e:	0752      	lsls	r2, r2, #29
10002760:	d5fc      	bpl.n	1000275c <GLCD_Initialize+0x117c>
10002762:	6802      	ldr	r2, [r0, #0]
10002764:	2200      	movs	r2, #0
10002766:	6002      	str	r2, [r0, #0]
10002768:	6842      	ldr	r2, [r0, #4]
1000276a:	0752      	lsls	r2, r2, #29
1000276c:	d5fc      	bpl.n	10002768 <GLCD_Initialize+0x1188>
1000276e:	6802      	ldr	r2, [r0, #0]
10002770:	2201      	movs	r2, #1
10002772:	6002      	str	r2, [r0, #0]
10002774:	6842      	ldr	r2, [r0, #4]
10002776:	0752      	lsls	r2, r2, #29
10002778:	d5fc      	bpl.n	10002774 <GLCD_Initialize+0x1194>
1000277a:	6802      	ldr	r2, [r0, #0]
1000277c:	680a      	ldr	r2, [r1, #0]
1000277e:	f042 0201 	orr.w	r2, r2, #1
10002782:	600a      	str	r2, [r1, #0]
10002784:	680a      	ldr	r2, [r1, #0]
10002786:	f022 0201 	bic.w	r2, r2, #1
1000278a:	600a      	str	r2, [r1, #0]
1000278c:	2270      	movs	r2, #112	@ 0x70
1000278e:	6002      	str	r2, [r0, #0]
10002790:	6842      	ldr	r2, [r0, #4]
10002792:	0752      	lsls	r2, r2, #29
10002794:	d5fc      	bpl.n	10002790 <GLCD_Initialize+0x11b0>
10002796:	6802      	ldr	r2, [r0, #0]
10002798:	2200      	movs	r2, #0
1000279a:	6002      	str	r2, [r0, #0]
1000279c:	6842      	ldr	r2, [r0, #4]
1000279e:	0752      	lsls	r2, r2, #29
100027a0:	d5fc      	bpl.n	1000279c <GLCD_Initialize+0x11bc>
100027a2:	6802      	ldr	r2, [r0, #0]
100027a4:	2201      	movs	r2, #1
100027a6:	6002      	str	r2, [r0, #0]
100027a8:	6842      	ldr	r2, [r0, #4]
100027aa:	0752      	lsls	r2, r2, #29
100027ac:	d5fc      	bpl.n	100027a8 <GLCD_Initialize+0x11c8>
100027ae:	6802      	ldr	r2, [r0, #0]
100027b0:	680a      	ldr	r2, [r1, #0]
100027b2:	f042 0201 	orr.w	r2, r2, #1
100027b6:	600a      	str	r2, [r1, #0]
100027b8:	680a      	ldr	r2, [r1, #0]
100027ba:	f022 0201 	bic.w	r2, r2, #1
100027be:	600a      	str	r2, [r1, #0]
100027c0:	2272      	movs	r2, #114	@ 0x72
100027c2:	6002      	str	r2, [r0, #0]
100027c4:	6842      	ldr	r2, [r0, #4]
100027c6:	0752      	lsls	r2, r2, #29
100027c8:	d5fc      	bpl.n	100027c4 <GLCD_Initialize+0x11e4>
100027ca:	6802      	ldr	r2, [r0, #0]
100027cc:	2200      	movs	r2, #0
100027ce:	6002      	str	r2, [r0, #0]
100027d0:	6842      	ldr	r2, [r0, #4]
100027d2:	0752      	lsls	r2, r2, #29
100027d4:	d5fc      	bpl.n	100027d0 <GLCD_Initialize+0x11f0>
100027d6:	6802      	ldr	r2, [r0, #0]
100027d8:	2200      	movs	r2, #0
100027da:	6002      	str	r2, [r0, #0]
100027dc:	6842      	ldr	r2, [r0, #4]
100027de:	0752      	lsls	r2, r2, #29
100027e0:	d5fc      	bpl.n	100027dc <GLCD_Initialize+0x11fc>
100027e2:	6802      	ldr	r2, [r0, #0]
100027e4:	680a      	ldr	r2, [r1, #0]
100027e6:	f042 0201 	orr.w	r2, r2, #1
100027ea:	600a      	str	r2, [r1, #0]
100027ec:	680a      	ldr	r2, [r1, #0]
100027ee:	f022 0201 	bic.w	r2, r2, #1
100027f2:	600a      	str	r2, [r1, #0]
100027f4:	2270      	movs	r2, #112	@ 0x70
100027f6:	6002      	str	r2, [r0, #0]
100027f8:	6842      	ldr	r2, [r0, #4]
100027fa:	0752      	lsls	r2, r2, #29
100027fc:	d5fc      	bpl.n	100027f8 <GLCD_Initialize+0x1218>
100027fe:	6802      	ldr	r2, [r0, #0]
10002800:	2200      	movs	r2, #0
10002802:	6002      	str	r2, [r0, #0]
10002804:	6842      	ldr	r2, [r0, #4]
10002806:	0752      	lsls	r2, r2, #29
10002808:	d5fc      	bpl.n	10002804 <GLCD_Initialize+0x1224>
1000280a:	6802      	ldr	r2, [r0, #0]
1000280c:	221f      	movs	r2, #31
1000280e:	6002      	str	r2, [r0, #0]
10002810:	6842      	ldr	r2, [r0, #4]
10002812:	0752      	lsls	r2, r2, #29
10002814:	d5fc      	bpl.n	10002810 <GLCD_Initialize+0x1230>
10002816:	6802      	ldr	r2, [r0, #0]
10002818:	680a      	ldr	r2, [r1, #0]
1000281a:	f042 0201 	orr.w	r2, r2, #1
1000281e:	600a      	str	r2, [r1, #0]
10002820:	680a      	ldr	r2, [r1, #0]
10002822:	f022 0201 	bic.w	r2, r2, #1
10002826:	600a      	str	r2, [r1, #0]
10002828:	2272      	movs	r2, #114	@ 0x72
1000282a:	6002      	str	r2, [r0, #0]
1000282c:	6842      	ldr	r2, [r0, #4]
1000282e:	0752      	lsls	r2, r2, #29
10002830:	d5fc      	bpl.n	1000282c <GLCD_Initialize+0x124c>
10002832:	6802      	ldr	r2, [r0, #0]
10002834:	2200      	movs	r2, #0
10002836:	6002      	str	r2, [r0, #0]
10002838:	6842      	ldr	r2, [r0, #4]
1000283a:	0752      	lsls	r2, r2, #29
1000283c:	d5fc      	bpl.n	10002838 <GLCD_Initialize+0x1258>
1000283e:	6802      	ldr	r2, [r0, #0]
10002840:	2288      	movs	r2, #136	@ 0x88
10002842:	6002      	str	r2, [r0, #0]
10002844:	6842      	ldr	r2, [r0, #4]
10002846:	0752      	lsls	r2, r2, #29
10002848:	d5fc      	bpl.n	10002844 <GLCD_Initialize+0x1264>
1000284a:	6802      	ldr	r2, [r0, #0]
1000284c:	680a      	ldr	r2, [r1, #0]
1000284e:	f042 0201 	orr.w	r2, r2, #1
10002852:	600a      	str	r2, [r1, #0]
10002854:	f8de 2000 	ldr.w	r2, [lr]
10002858:	f5b2 7f7a 	cmp.w	r2, #1000	@ 0x3e8
1000285c:	d309      	bcc.n	10002872 <GLCD_Initialize+0x1292>
1000285e:	fba2 230c 	umull	r2, r3, r2, ip
10002862:	099a      	lsrs	r2, r3, #6
10002864:	f06f 0331 	mvn.w	r3, #49	@ 0x31
10002868:	fb02 f203 	mul.w	r2, r2, r3
1000286c:	3201      	adds	r2, #1
1000286e:	bf00      	nop
10002870:	d3fc      	bcc.n	1000286c <GLCD_Initialize+0x128c>
10002872:	680a      	ldr	r2, [r1, #0]
10002874:	f022 0201 	bic.w	r2, r2, #1
10002878:	600a      	str	r2, [r1, #0]
1000287a:	2270      	movs	r2, #112	@ 0x70
1000287c:	6002      	str	r2, [r0, #0]
1000287e:	bf00      	nop
10002880:	6842      	ldr	r2, [r0, #4]
10002882:	0752      	lsls	r2, r2, #29
10002884:	d5fc      	bpl.n	10002880 <GLCD_Initialize+0x12a0>
10002886:	6802      	ldr	r2, [r0, #0]
10002888:	2200      	movs	r2, #0
1000288a:	6002      	str	r2, [r0, #0]
1000288c:	6842      	ldr	r2, [r0, #4]
1000288e:	0752      	lsls	r2, r2, #29
10002890:	d5fc      	bpl.n	1000288c <GLCD_Initialize+0x12ac>
10002892:	6802      	ldr	r2, [r0, #0]
10002894:	221f      	movs	r2, #31
10002896:	6002      	str	r2, [r0, #0]
10002898:	6842      	ldr	r2, [r0, #4]
1000289a:	0752      	lsls	r2, r2, #29
1000289c:	d5fc      	bpl.n	10002898 <GLCD_Initialize+0x12b8>
1000289e:	6802      	ldr	r2, [r0, #0]
100028a0:	680a      	ldr	r2, [r1, #0]
100028a2:	f042 0201 	orr.w	r2, r2, #1
100028a6:	600a      	str	r2, [r1, #0]
100028a8:	680a      	ldr	r2, [r1, #0]
100028aa:	f022 0201 	bic.w	r2, r2, #1
100028ae:	600a      	str	r2, [r1, #0]
100028b0:	2272      	movs	r2, #114	@ 0x72
100028b2:	6002      	str	r2, [r0, #0]
100028b4:	6842      	ldr	r2, [r0, #4]
100028b6:	0752      	lsls	r2, r2, #29
100028b8:	d5fc      	bpl.n	100028b4 <GLCD_Initialize+0x12d4>
100028ba:	6802      	ldr	r2, [r0, #0]
100028bc:	2200      	movs	r2, #0
100028be:	6002      	str	r2, [r0, #0]
100028c0:	6842      	ldr	r2, [r0, #4]
100028c2:	0752      	lsls	r2, r2, #29
100028c4:	d5fc      	bpl.n	100028c0 <GLCD_Initialize+0x12e0>
100028c6:	6802      	ldr	r2, [r0, #0]
100028c8:	2282      	movs	r2, #130	@ 0x82
100028ca:	6002      	str	r2, [r0, #0]
100028cc:	6842      	ldr	r2, [r0, #4]
100028ce:	0752      	lsls	r2, r2, #29
100028d0:	d5fc      	bpl.n	100028cc <GLCD_Initialize+0x12ec>
100028d2:	6802      	ldr	r2, [r0, #0]
100028d4:	680a      	ldr	r2, [r1, #0]
100028d6:	f042 0201 	orr.w	r2, r2, #1
100028da:	600a      	str	r2, [r1, #0]
100028dc:	f8de 2000 	ldr.w	r2, [lr]
100028e0:	f5b2 7f7a 	cmp.w	r2, #1000	@ 0x3e8
100028e4:	d309      	bcc.n	100028fa <GLCD_Initialize+0x131a>
100028e6:	fba2 230c 	umull	r2, r3, r2, ip
100028ea:	099a      	lsrs	r2, r3, #6
100028ec:	eb02 0282 	add.w	r2, r2, r2, lsl #2
100028f0:	4252      	negs	r2, r2
100028f2:	0052      	lsls	r2, r2, #1
100028f4:	3201      	adds	r2, #1
100028f6:	bf00      	nop
100028f8:	d3fc      	bcc.n	100028f4 <GLCD_Initialize+0x1314>
100028fa:	680a      	ldr	r2, [r1, #0]
100028fc:	f022 0201 	bic.w	r2, r2, #1
10002900:	600a      	str	r2, [r1, #0]
10002902:	2270      	movs	r2, #112	@ 0x70
10002904:	6002      	str	r2, [r0, #0]
10002906:	bf00      	nop
10002908:	6842      	ldr	r2, [r0, #4]
1000290a:	0752      	lsls	r2, r2, #29
1000290c:	d5fc      	bpl.n	10002908 <GLCD_Initialize+0x1328>
1000290e:	6802      	ldr	r2, [r0, #0]
10002910:	2200      	movs	r2, #0
10002912:	6002      	str	r2, [r0, #0]
10002914:	6842      	ldr	r2, [r0, #4]
10002916:	0752      	lsls	r2, r2, #29
10002918:	d5fc      	bpl.n	10002914 <GLCD_Initialize+0x1334>
1000291a:	6802      	ldr	r2, [r0, #0]
1000291c:	221f      	movs	r2, #31
1000291e:	6002      	str	r2, [r0, #0]
10002920:	6842      	ldr	r2, [r0, #4]
10002922:	0752      	lsls	r2, r2, #29
10002924:	d5fc      	bpl.n	10002920 <GLCD_Initialize+0x1340>
10002926:	6802      	ldr	r2, [r0, #0]
10002928:	680a      	ldr	r2, [r1, #0]
1000292a:	f042 0201 	orr.w	r2, r2, #1
1000292e:	600a      	str	r2, [r1, #0]
10002930:	680a      	ldr	r2, [r1, #0]
10002932:	f022 0201 	bic.w	r2, r2, #1
10002936:	600a      	str	r2, [r1, #0]
10002938:	2272      	movs	r2, #114	@ 0x72
1000293a:	6002      	str	r2, [r0, #0]
1000293c:	6842      	ldr	r2, [r0, #4]
1000293e:	0752      	lsls	r2, r2, #29
10002940:	d5fc      	bpl.n	1000293c <GLCD_Initialize+0x135c>
10002942:	6802      	ldr	r2, [r0, #0]
10002944:	2200      	movs	r2, #0
10002946:	6002      	str	r2, [r0, #0]
10002948:	6842      	ldr	r2, [r0, #4]
1000294a:	0752      	lsls	r2, r2, #29
1000294c:	d5fc      	bpl.n	10002948 <GLCD_Initialize+0x1368>
1000294e:	6802      	ldr	r2, [r0, #0]
10002950:	2292      	movs	r2, #146	@ 0x92
10002952:	6002      	str	r2, [r0, #0]
10002954:	6842      	ldr	r2, [r0, #4]
10002956:	0752      	lsls	r2, r2, #29
10002958:	d5fc      	bpl.n	10002954 <GLCD_Initialize+0x1374>
1000295a:	6802      	ldr	r2, [r0, #0]
1000295c:	680a      	ldr	r2, [r1, #0]
1000295e:	f042 0201 	orr.w	r2, r2, #1
10002962:	600a      	str	r2, [r1, #0]
10002964:	f8de 2000 	ldr.w	r2, [lr]
10002968:	f5b2 7f7a 	cmp.w	r2, #1000	@ 0x3e8
1000296c:	d309      	bcc.n	10002982 <GLCD_Initialize+0x13a2>
1000296e:	fba2 230c 	umull	r2, r3, r2, ip
10002972:	099a      	lsrs	r2, r3, #6
10002974:	eb02 0282 	add.w	r2, r2, r2, lsl #2
10002978:	4252      	negs	r2, r2
1000297a:	0052      	lsls	r2, r2, #1
1000297c:	3201      	adds	r2, #1
1000297e:	bf00      	nop
10002980:	d3fc      	bcc.n	1000297c <GLCD_Initialize+0x139c>
10002982:	680a      	ldr	r2, [r1, #0]
10002984:	f022 0201 	bic.w	r2, r2, #1
10002988:	600a      	str	r2, [r1, #0]
1000298a:	2270      	movs	r2, #112	@ 0x70
1000298c:	6002      	str	r2, [r0, #0]
1000298e:	bf00      	nop
10002990:	6842      	ldr	r2, [r0, #4]
10002992:	0752      	lsls	r2, r2, #29
10002994:	d5fc      	bpl.n	10002990 <GLCD_Initialize+0x13b0>
10002996:	6802      	ldr	r2, [r0, #0]
10002998:	2200      	movs	r2, #0
1000299a:	6002      	str	r2, [r0, #0]
1000299c:	6842      	ldr	r2, [r0, #4]
1000299e:	0752      	lsls	r2, r2, #29
100029a0:	d5fc      	bpl.n	1000299c <GLCD_Initialize+0x13bc>
100029a2:	6802      	ldr	r2, [r0, #0]
100029a4:	221f      	movs	r2, #31
100029a6:	6002      	str	r2, [r0, #0]
100029a8:	6842      	ldr	r2, [r0, #4]
100029aa:	0752      	lsls	r2, r2, #29
100029ac:	d5fc      	bpl.n	100029a8 <GLCD_Initialize+0x13c8>
100029ae:	6802      	ldr	r2, [r0, #0]
100029b0:	680a      	ldr	r2, [r1, #0]
100029b2:	f042 0201 	orr.w	r2, r2, #1
100029b6:	600a      	str	r2, [r1, #0]
100029b8:	680a      	ldr	r2, [r1, #0]
100029ba:	f022 0201 	bic.w	r2, r2, #1
100029be:	600a      	str	r2, [r1, #0]
100029c0:	2272      	movs	r2, #114	@ 0x72
100029c2:	6002      	str	r2, [r0, #0]
100029c4:	6842      	ldr	r2, [r0, #4]
100029c6:	0752      	lsls	r2, r2, #29
100029c8:	d5fc      	bpl.n	100029c4 <GLCD_Initialize+0x13e4>
100029ca:	6802      	ldr	r2, [r0, #0]
100029cc:	2200      	movs	r2, #0
100029ce:	6002      	str	r2, [r0, #0]
100029d0:	6842      	ldr	r2, [r0, #4]
100029d2:	0752      	lsls	r2, r2, #29
100029d4:	d5fc      	bpl.n	100029d0 <GLCD_Initialize+0x13f0>
100029d6:	6802      	ldr	r2, [r0, #0]
100029d8:	22d2      	movs	r2, #210	@ 0xd2
100029da:	6002      	str	r2, [r0, #0]
100029dc:	6842      	ldr	r2, [r0, #4]
100029de:	0752      	lsls	r2, r2, #29
100029e0:	d5fc      	bpl.n	100029dc <GLCD_Initialize+0x13fc>
100029e2:	6802      	ldr	r2, [r0, #0]
100029e4:	680a      	ldr	r2, [r1, #0]
100029e6:	f042 0201 	orr.w	r2, r2, #1
100029ea:	600a      	str	r2, [r1, #0]
100029ec:	f8de 2000 	ldr.w	r2, [lr]
100029f0:	f5b2 7f7a 	cmp.w	r2, #1000	@ 0x3e8
100029f4:	d309      	bcc.n	10002a0a <GLCD_Initialize+0x142a>
100029f6:	fba2 230c 	umull	r2, r3, r2, ip
100029fa:	099a      	lsrs	r2, r3, #6
100029fc:	eb02 0282 	add.w	r2, r2, r2, lsl #2
10002a00:	4252      	negs	r2, r2
10002a02:	0052      	lsls	r2, r2, #1
10002a04:	3201      	adds	r2, #1
10002a06:	bf00      	nop
10002a08:	d3fc      	bcc.n	10002a04 <GLCD_Initialize+0x1424>
10002a0a:	680a      	ldr	r2, [r1, #0]
10002a0c:	f022 0201 	bic.w	r2, r2, #1
10002a10:	600a      	str	r2, [r1, #0]
10002a12:	2270      	movs	r2, #112	@ 0x70
10002a14:	6002      	str	r2, [r0, #0]
10002a16:	bf00      	nop
10002a18:	6842      	ldr	r2, [r0, #4]
10002a1a:	0752      	lsls	r2, r2, #29
10002a1c:	d5fc      	bpl.n	10002a18 <GLCD_Initialize+0x1438>
10002a1e:	6802      	ldr	r2, [r0, #0]
10002a20:	2200      	movs	r2, #0
10002a22:	6002      	str	r2, [r0, #0]
10002a24:	6842      	ldr	r2, [r0, #4]
10002a26:	0752      	lsls	r2, r2, #29
10002a28:	d5fc      	bpl.n	10002a24 <GLCD_Initialize+0x1444>
10002a2a:	6802      	ldr	r2, [r0, #0]
10002a2c:	2217      	movs	r2, #23
10002a2e:	6002      	str	r2, [r0, #0]
10002a30:	6842      	ldr	r2, [r0, #4]
10002a32:	0752      	lsls	r2, r2, #29
10002a34:	d5fc      	bpl.n	10002a30 <GLCD_Initialize+0x1450>
10002a36:	6802      	ldr	r2, [r0, #0]
10002a38:	680a      	ldr	r2, [r1, #0]
10002a3a:	f042 0201 	orr.w	r2, r2, #1
10002a3e:	600a      	str	r2, [r1, #0]
10002a40:	680a      	ldr	r2, [r1, #0]
10002a42:	f022 0201 	bic.w	r2, r2, #1
10002a46:	600a      	str	r2, [r1, #0]
10002a48:	2272      	movs	r2, #114	@ 0x72
10002a4a:	6002      	str	r2, [r0, #0]
10002a4c:	6842      	ldr	r2, [r0, #4]
10002a4e:	0752      	lsls	r2, r2, #29
10002a50:	d5fc      	bpl.n	10002a4c <GLCD_Initialize+0x146c>
10002a52:	6802      	ldr	r2, [r0, #0]
10002a54:	2200      	movs	r2, #0
10002a56:	6002      	str	r2, [r0, #0]
10002a58:	6842      	ldr	r2, [r0, #4]
10002a5a:	0752      	lsls	r2, r2, #29
10002a5c:	d5fc      	bpl.n	10002a58 <GLCD_Initialize+0x1478>
10002a5e:	6802      	ldr	r2, [r0, #0]
10002a60:	2255      	movs	r2, #85	@ 0x55
10002a62:	6002      	str	r2, [r0, #0]
10002a64:	6842      	ldr	r2, [r0, #4]
10002a66:	0752      	lsls	r2, r2, #29
10002a68:	d5fc      	bpl.n	10002a64 <GLCD_Initialize+0x1484>
10002a6a:	6802      	ldr	r2, [r0, #0]
10002a6c:	680a      	ldr	r2, [r1, #0]
10002a6e:	f042 0201 	orr.w	r2, r2, #1
10002a72:	600a      	str	r2, [r1, #0]
10002a74:	680a      	ldr	r2, [r1, #0]
10002a76:	f022 0201 	bic.w	r2, r2, #1
10002a7a:	600a      	str	r2, [r1, #0]
10002a7c:	2270      	movs	r2, #112	@ 0x70
10002a7e:	6002      	str	r2, [r0, #0]
10002a80:	6842      	ldr	r2, [r0, #4]
10002a82:	0752      	lsls	r2, r2, #29
10002a84:	d5fc      	bpl.n	10002a80 <GLCD_Initialize+0x14a0>
10002a86:	6802      	ldr	r2, [r0, #0]
10002a88:	2200      	movs	r2, #0
10002a8a:	6002      	str	r2, [r0, #0]
10002a8c:	6842      	ldr	r2, [r0, #4]
10002a8e:	0752      	lsls	r2, r2, #29
10002a90:	d5fc      	bpl.n	10002a8c <GLCD_Initialize+0x14ac>
10002a92:	6802      	ldr	r2, [r0, #0]
10002a94:	2200      	movs	r2, #0
10002a96:	6002      	str	r2, [r0, #0]
10002a98:	6842      	ldr	r2, [r0, #4]
10002a9a:	0752      	lsls	r2, r2, #29
10002a9c:	d5fc      	bpl.n	10002a98 <GLCD_Initialize+0x14b8>
10002a9e:	6802      	ldr	r2, [r0, #0]
10002aa0:	680a      	ldr	r2, [r1, #0]
10002aa2:	f042 0201 	orr.w	r2, r2, #1
10002aa6:	600a      	str	r2, [r1, #0]
10002aa8:	680a      	ldr	r2, [r1, #0]
10002aaa:	f022 0201 	bic.w	r2, r2, #1
10002aae:	600a      	str	r2, [r1, #0]
10002ab0:	2272      	movs	r2, #114	@ 0x72
10002ab2:	6002      	str	r2, [r0, #0]
10002ab4:	6842      	ldr	r2, [r0, #4]
10002ab6:	0752      	lsls	r2, r2, #29
10002ab8:	d5fc      	bpl.n	10002ab4 <GLCD_Initialize+0x14d4>
10002aba:	6802      	ldr	r2, [r0, #0]
10002abc:	2200      	movs	r2, #0
10002abe:	6002      	str	r2, [r0, #0]
10002ac0:	6842      	ldr	r2, [r0, #4]
10002ac2:	0752      	lsls	r2, r2, #29
10002ac4:	d5fc      	bpl.n	10002ac0 <GLCD_Initialize+0x14e0>
10002ac6:	6802      	ldr	r2, [r0, #0]
10002ac8:	2200      	movs	r2, #0
10002aca:	6002      	str	r2, [r0, #0]
10002acc:	6842      	ldr	r2, [r0, #4]
10002ace:	0752      	lsls	r2, r2, #29
10002ad0:	d5fc      	bpl.n	10002acc <GLCD_Initialize+0x14ec>
10002ad2:	6802      	ldr	r2, [r0, #0]
10002ad4:	680a      	ldr	r2, [r1, #0]
10002ad6:	f042 0201 	orr.w	r2, r2, #1
10002ada:	600a      	str	r2, [r1, #0]
10002adc:	680a      	ldr	r2, [r1, #0]
10002ade:	f022 0201 	bic.w	r2, r2, #1
10002ae2:	600a      	str	r2, [r1, #0]
10002ae4:	2270      	movs	r2, #112	@ 0x70
10002ae6:	6002      	str	r2, [r0, #0]
10002ae8:	6842      	ldr	r2, [r0, #4]
10002aea:	0752      	lsls	r2, r2, #29
10002aec:	d5fc      	bpl.n	10002ae8 <GLCD_Initialize+0x1508>
10002aee:	6802      	ldr	r2, [r0, #0]
10002af0:	2200      	movs	r2, #0
10002af2:	6002      	str	r2, [r0, #0]
10002af4:	6842      	ldr	r2, [r0, #4]
10002af6:	0752      	lsls	r2, r2, #29
10002af8:	d5fc      	bpl.n	10002af4 <GLCD_Initialize+0x1514>
10002afa:	6802      	ldr	r2, [r0, #0]
10002afc:	222f      	movs	r2, #47	@ 0x2f
10002afe:	6002      	str	r2, [r0, #0]
10002b00:	6842      	ldr	r2, [r0, #4]
10002b02:	0752      	lsls	r2, r2, #29
10002b04:	d5fc      	bpl.n	10002b00 <GLCD_Initialize+0x1520>
10002b06:	6802      	ldr	r2, [r0, #0]
10002b08:	680a      	ldr	r2, [r1, #0]
10002b0a:	f042 0201 	orr.w	r2, r2, #1
10002b0e:	600a      	str	r2, [r1, #0]
10002b10:	680a      	ldr	r2, [r1, #0]
10002b12:	f022 0201 	bic.w	r2, r2, #1
10002b16:	600a      	str	r2, [r1, #0]
10002b18:	2272      	movs	r2, #114	@ 0x72
10002b1a:	6002      	str	r2, [r0, #0]
10002b1c:	6842      	ldr	r2, [r0, #4]
10002b1e:	0752      	lsls	r2, r2, #29
10002b20:	d5fc      	bpl.n	10002b1c <GLCD_Initialize+0x153c>
10002b22:	6802      	ldr	r2, [r0, #0]
10002b24:	2200      	movs	r2, #0
10002b26:	6002      	str	r2, [r0, #0]
10002b28:	6842      	ldr	r2, [r0, #4]
10002b2a:	0752      	lsls	r2, r2, #29
10002b2c:	d5fc      	bpl.n	10002b28 <GLCD_Initialize+0x1548>
10002b2e:	6802      	ldr	r2, [r0, #0]
10002b30:	2211      	movs	r2, #17
10002b32:	6002      	str	r2, [r0, #0]
10002b34:	6842      	ldr	r2, [r0, #4]
10002b36:	0752      	lsls	r2, r2, #29
10002b38:	d5fc      	bpl.n	10002b34 <GLCD_Initialize+0x1554>
10002b3a:	6802      	ldr	r2, [r0, #0]
10002b3c:	680a      	ldr	r2, [r1, #0]
10002b3e:	f042 0201 	orr.w	r2, r2, #1
10002b42:	600a      	str	r2, [r1, #0]
10002b44:	680a      	ldr	r2, [r1, #0]
10002b46:	f022 0201 	bic.w	r2, r2, #1
10002b4a:	600a      	str	r2, [r1, #0]
10002b4c:	2270      	movs	r2, #112	@ 0x70
10002b4e:	6002      	str	r2, [r0, #0]
10002b50:	6842      	ldr	r2, [r0, #4]
10002b52:	0752      	lsls	r2, r2, #29
10002b54:	d5fc      	bpl.n	10002b50 <GLCD_Initialize+0x1570>
10002b56:	6802      	ldr	r2, [r0, #0]
10002b58:	2200      	movs	r2, #0
10002b5a:	6002      	str	r2, [r0, #0]
10002b5c:	6842      	ldr	r2, [r0, #4]
10002b5e:	0752      	lsls	r2, r2, #29
10002b60:	d5fc      	bpl.n	10002b5c <GLCD_Initialize+0x157c>
10002b62:	6802      	ldr	r2, [r0, #0]
10002b64:	2231      	movs	r2, #49	@ 0x31
10002b66:	6002      	str	r2, [r0, #0]
10002b68:	6842      	ldr	r2, [r0, #4]
10002b6a:	0752      	lsls	r2, r2, #29
10002b6c:	d5fc      	bpl.n	10002b68 <GLCD_Initialize+0x1588>
10002b6e:	6802      	ldr	r2, [r0, #0]
10002b70:	680a      	ldr	r2, [r1, #0]
10002b72:	f042 0201 	orr.w	r2, r2, #1
10002b76:	600a      	str	r2, [r1, #0]
10002b78:	680a      	ldr	r2, [r1, #0]
10002b7a:	f022 0201 	bic.w	r2, r2, #1
10002b7e:	600a      	str	r2, [r1, #0]
10002b80:	2272      	movs	r2, #114	@ 0x72
10002b82:	6002      	str	r2, [r0, #0]
10002b84:	6842      	ldr	r2, [r0, #4]
10002b86:	0752      	lsls	r2, r2, #29
10002b88:	d5fc      	bpl.n	10002b84 <GLCD_Initialize+0x15a4>
10002b8a:	6802      	ldr	r2, [r0, #0]
10002b8c:	2200      	movs	r2, #0
10002b8e:	6002      	str	r2, [r0, #0]
10002b90:	6842      	ldr	r2, [r0, #4]
10002b92:	0752      	lsls	r2, r2, #29
10002b94:	d5fc      	bpl.n	10002b90 <GLCD_Initialize+0x15b0>
10002b96:	6802      	ldr	r2, [r0, #0]
10002b98:	2200      	movs	r2, #0
10002b9a:	6002      	str	r2, [r0, #0]
10002b9c:	6842      	ldr	r2, [r0, #4]
10002b9e:	0752      	lsls	r2, r2, #29
10002ba0:	d5fc      	bpl.n	10002b9c <GLCD_Initialize+0x15bc>
10002ba2:	6802      	ldr	r2, [r0, #0]
10002ba4:	680a      	ldr	r2, [r1, #0]
10002ba6:	f042 0201 	orr.w	r2, r2, #1
10002baa:	600a      	str	r2, [r1, #0]
10002bac:	680a      	ldr	r2, [r1, #0]
10002bae:	f022 0201 	bic.w	r2, r2, #1
10002bb2:	600a      	str	r2, [r1, #0]
10002bb4:	2270      	movs	r2, #112	@ 0x70
10002bb6:	6002      	str	r2, [r0, #0]
10002bb8:	6842      	ldr	r2, [r0, #4]
10002bba:	0752      	lsls	r2, r2, #29
10002bbc:	d5fc      	bpl.n	10002bb8 <GLCD_Initialize+0x15d8>
10002bbe:	6802      	ldr	r2, [r0, #0]
10002bc0:	2200      	movs	r2, #0
10002bc2:	6002      	str	r2, [r0, #0]
10002bc4:	6842      	ldr	r2, [r0, #4]
10002bc6:	0752      	lsls	r2, r2, #29
10002bc8:	d5fc      	bpl.n	10002bc4 <GLCD_Initialize+0x15e4>
10002bca:	6802      	ldr	r2, [r0, #0]
10002bcc:	2232      	movs	r2, #50	@ 0x32
10002bce:	6002      	str	r2, [r0, #0]
10002bd0:	6842      	ldr	r2, [r0, #4]
10002bd2:	0752      	lsls	r2, r2, #29
10002bd4:	d5fc      	bpl.n	10002bd0 <GLCD_Initialize+0x15f0>
10002bd6:	6802      	ldr	r2, [r0, #0]
10002bd8:	680a      	ldr	r2, [r1, #0]
10002bda:	f042 0201 	orr.w	r2, r2, #1
10002bde:	600a      	str	r2, [r1, #0]
10002be0:	680a      	ldr	r2, [r1, #0]
10002be2:	f022 0201 	bic.w	r2, r2, #1
10002be6:	600a      	str	r2, [r1, #0]
10002be8:	2272      	movs	r2, #114	@ 0x72
10002bea:	6002      	str	r2, [r0, #0]
10002bec:	6842      	ldr	r2, [r0, #4]
10002bee:	0752      	lsls	r2, r2, #29
10002bf0:	d5fc      	bpl.n	10002bec <GLCD_Initialize+0x160c>
10002bf2:	6802      	ldr	r2, [r0, #0]
10002bf4:	2200      	movs	r2, #0
10002bf6:	6002      	str	r2, [r0, #0]
10002bf8:	6842      	ldr	r2, [r0, #4]
10002bfa:	0752      	lsls	r2, r2, #29
10002bfc:	d5fc      	bpl.n	10002bf8 <GLCD_Initialize+0x1618>
10002bfe:	6802      	ldr	r2, [r0, #0]
10002c00:	2200      	movs	r2, #0
10002c02:	6002      	str	r2, [r0, #0]
10002c04:	6842      	ldr	r2, [r0, #4]
10002c06:	0752      	lsls	r2, r2, #29
10002c08:	d5fc      	bpl.n	10002c04 <GLCD_Initialize+0x1624>
10002c0a:	6802      	ldr	r2, [r0, #0]
10002c0c:	680a      	ldr	r2, [r1, #0]
10002c0e:	f042 0201 	orr.w	r2, r2, #1
10002c12:	600a      	str	r2, [r1, #0]
10002c14:	680a      	ldr	r2, [r1, #0]
10002c16:	f022 0201 	bic.w	r2, r2, #1
10002c1a:	600a      	str	r2, [r1, #0]
10002c1c:	2270      	movs	r2, #112	@ 0x70
10002c1e:	6002      	str	r2, [r0, #0]
10002c20:	6842      	ldr	r2, [r0, #4]
10002c22:	0752      	lsls	r2, r2, #29
10002c24:	d5fc      	bpl.n	10002c20 <GLCD_Initialize+0x1640>
10002c26:	6802      	ldr	r2, [r0, #0]
10002c28:	2200      	movs	r2, #0
10002c2a:	6002      	str	r2, [r0, #0]
10002c2c:	6842      	ldr	r2, [r0, #4]
10002c2e:	0752      	lsls	r2, r2, #29
10002c30:	d5fc      	bpl.n	10002c2c <GLCD_Initialize+0x164c>
10002c32:	6802      	ldr	r2, [r0, #0]
10002c34:	2228      	movs	r2, #40	@ 0x28
10002c36:	6002      	str	r2, [r0, #0]
10002c38:	6842      	ldr	r2, [r0, #4]
10002c3a:	0752      	lsls	r2, r2, #29
10002c3c:	d5fc      	bpl.n	10002c38 <GLCD_Initialize+0x1658>
10002c3e:	6802      	ldr	r2, [r0, #0]
10002c40:	680a      	ldr	r2, [r1, #0]
10002c42:	f042 0201 	orr.w	r2, r2, #1
10002c46:	600a      	str	r2, [r1, #0]
10002c48:	680a      	ldr	r2, [r1, #0]
10002c4a:	f022 0201 	bic.w	r2, r2, #1
10002c4e:	600a      	str	r2, [r1, #0]
10002c50:	2272      	movs	r2, #114	@ 0x72
10002c52:	6002      	str	r2, [r0, #0]
10002c54:	6842      	ldr	r2, [r0, #4]
10002c56:	0752      	lsls	r2, r2, #29
10002c58:	d5fc      	bpl.n	10002c54 <GLCD_Initialize+0x1674>
10002c5a:	6802      	ldr	r2, [r0, #0]
10002c5c:	2200      	movs	r2, #0
10002c5e:	6002      	str	r2, [r0, #0]
10002c60:	6842      	ldr	r2, [r0, #4]
10002c62:	0752      	lsls	r2, r2, #29
10002c64:	d5fc      	bpl.n	10002c60 <GLCD_Initialize+0x1680>
10002c66:	6802      	ldr	r2, [r0, #0]
10002c68:	2238      	movs	r2, #56	@ 0x38
10002c6a:	6002      	str	r2, [r0, #0]
10002c6c:	6842      	ldr	r2, [r0, #4]
10002c6e:	0752      	lsls	r2, r2, #29
10002c70:	d5fc      	bpl.n	10002c6c <GLCD_Initialize+0x168c>
10002c72:	6802      	ldr	r2, [r0, #0]
10002c74:	680a      	ldr	r2, [r1, #0]
10002c76:	f042 0201 	orr.w	r2, r2, #1
10002c7a:	600a      	str	r2, [r1, #0]
10002c7c:	f8de 2000 	ldr.w	r2, [lr]
10002c80:	f5b2 7f7a 	cmp.w	r2, #1000	@ 0x3e8
10002c84:	d309      	bcc.n	10002c9a <GLCD_Initialize+0x16ba>
10002c86:	fba2 230c 	umull	r2, r3, r2, ip
10002c8a:	099a      	lsrs	r2, r3, #6
10002c8c:	f06f 03c7 	mvn.w	r3, #199	@ 0xc7
10002c90:	fb02 f203 	mul.w	r2, r2, r3
10002c94:	3201      	adds	r2, #1
10002c96:	bf00      	nop
10002c98:	d3fc      	bcc.n	10002c94 <GLCD_Initialize+0x16b4>
10002c9a:	680a      	ldr	r2, [r1, #0]
10002c9c:	f022 0201 	bic.w	r2, r2, #1
10002ca0:	600a      	str	r2, [r1, #0]
10002ca2:	2270      	movs	r2, #112	@ 0x70
10002ca4:	6002      	str	r2, [r0, #0]
10002ca6:	bf00      	nop
10002ca8:	6842      	ldr	r2, [r0, #4]
10002caa:	0752      	lsls	r2, r2, #29
10002cac:	d5fc      	bpl.n	10002ca8 <GLCD_Initialize+0x16c8>
10002cae:	6802      	ldr	r2, [r0, #0]
10002cb0:	2200      	movs	r2, #0
10002cb2:	6002      	str	r2, [r0, #0]
10002cb4:	6842      	ldr	r2, [r0, #4]
10002cb6:	0752      	lsls	r2, r2, #29
10002cb8:	d5fc      	bpl.n	10002cb4 <GLCD_Initialize+0x16d4>
10002cba:	6802      	ldr	r2, [r0, #0]
10002cbc:	2228      	movs	r2, #40	@ 0x28
10002cbe:	6002      	str	r2, [r0, #0]
10002cc0:	6842      	ldr	r2, [r0, #4]
10002cc2:	0752      	lsls	r2, r2, #29
10002cc4:	d5fc      	bpl.n	10002cc0 <GLCD_Initialize+0x16e0>
10002cc6:	6802      	ldr	r2, [r0, #0]
10002cc8:	680a      	ldr	r2, [r1, #0]
10002cca:	f042 0201 	orr.w	r2, r2, #1
10002cce:	600a      	str	r2, [r1, #0]
10002cd0:	680a      	ldr	r2, [r1, #0]
10002cd2:	f022 0201 	bic.w	r2, r2, #1
10002cd6:	600a      	str	r2, [r1, #0]
10002cd8:	2272      	movs	r2, #114	@ 0x72
10002cda:	6002      	str	r2, [r0, #0]
10002cdc:	6842      	ldr	r2, [r0, #4]
10002cde:	0752      	lsls	r2, r2, #29
10002ce0:	d5fc      	bpl.n	10002cdc <GLCD_Initialize+0x16fc>
10002ce2:	6802      	ldr	r2, [r0, #0]
10002ce4:	2200      	movs	r2, #0
10002ce6:	6002      	str	r2, [r0, #0]
10002ce8:	6842      	ldr	r2, [r0, #4]
10002cea:	0752      	lsls	r2, r2, #29
10002cec:	d5fc      	bpl.n	10002ce8 <GLCD_Initialize+0x1708>
10002cee:	6802      	ldr	r2, [r0, #0]
10002cf0:	223c      	movs	r2, #60	@ 0x3c
10002cf2:	6002      	str	r2, [r0, #0]
10002cf4:	6842      	ldr	r2, [r0, #4]
10002cf6:	0752      	lsls	r2, r2, #29
10002cf8:	d5fc      	bpl.n	10002cf4 <GLCD_Initialize+0x1714>
10002cfa:	6802      	ldr	r2, [r0, #0]
10002cfc:	680a      	ldr	r2, [r1, #0]
10002cfe:	f042 0201 	orr.w	r2, r2, #1
10002d02:	600a      	str	r2, [r1, #0]
10002d04:	680a      	ldr	r2, [r1, #0]
10002d06:	f022 0201 	bic.w	r2, r2, #1
10002d0a:	600a      	str	r2, [r1, #0]
10002d0c:	2270      	movs	r2, #112	@ 0x70
10002d0e:	6002      	str	r2, [r0, #0]
10002d10:	6842      	ldr	r2, [r0, #4]
10002d12:	0752      	lsls	r2, r2, #29
10002d14:	d5fc      	bpl.n	10002d10 <GLCD_Initialize+0x1730>
10002d16:	6802      	ldr	r2, [r0, #0]
10002d18:	2200      	movs	r2, #0
10002d1a:	6002      	str	r2, [r0, #0]
10002d1c:	6842      	ldr	r2, [r0, #4]
10002d1e:	0752      	lsls	r2, r2, #29
10002d20:	d5fc      	bpl.n	10002d1c <GLCD_Initialize+0x173c>
10002d22:	6802      	ldr	r2, [r0, #0]
10002d24:	2216      	movs	r2, #22
10002d26:	6002      	str	r2, [r0, #0]
10002d28:	6842      	ldr	r2, [r0, #4]
10002d2a:	0752      	lsls	r2, r2, #29
10002d2c:	d5fc      	bpl.n	10002d28 <GLCD_Initialize+0x1748>
10002d2e:	6802      	ldr	r2, [r0, #0]
10002d30:	680a      	ldr	r2, [r1, #0]
10002d32:	f042 0201 	orr.w	r2, r2, #1
10002d36:	600a      	str	r2, [r1, #0]
10002d38:	680a      	ldr	r2, [r1, #0]
10002d3a:	f022 0201 	bic.w	r2, r2, #1
10002d3e:	600a      	str	r2, [r1, #0]
10002d40:	2272      	movs	r2, #114	@ 0x72
10002d42:	6002      	str	r2, [r0, #0]
10002d44:	6842      	ldr	r2, [r0, #4]
10002d46:	0752      	lsls	r2, r2, #29
10002d48:	d5fc      	bpl.n	10002d44 <GLCD_Initialize+0x1764>
10002d4a:	6802      	ldr	r2, [r0, #0]
10002d4c:	2200      	movs	r2, #0
10002d4e:	6002      	str	r2, [r0, #0]
10002d50:	6842      	ldr	r2, [r0, #4]
10002d52:	0752      	lsls	r2, r2, #29
10002d54:	d5fc      	bpl.n	10002d50 <GLCD_Initialize+0x1770>
10002d56:	6802      	ldr	r2, [r0, #0]
10002d58:	22a8      	movs	r2, #168	@ 0xa8
10002d5a:	6002      	str	r2, [r0, #0]
10002d5c:	6842      	ldr	r2, [r0, #4]
10002d5e:	0752      	lsls	r2, r2, #29
10002d60:	d5fc      	bpl.n	10002d5c <GLCD_Initialize+0x177c>
10002d62:	6802      	ldr	r2, [r0, #0]
10002d64:	680a      	ldr	r2, [r1, #0]
10002d66:	f042 0201 	orr.w	r2, r2, #1
10002d6a:	600a      	str	r2, [r1, #0]
10002d6c:	680a      	ldr	r2, [r1, #0]
10002d6e:	f022 0201 	bic.w	r2, r2, #1
10002d72:	600a      	str	r2, [r1, #0]
10002d74:	2270      	movs	r2, #112	@ 0x70
10002d76:	6002      	str	r2, [r0, #0]
10002d78:	6842      	ldr	r2, [r0, #4]
10002d7a:	0752      	lsls	r2, r2, #29
10002d7c:	d5fc      	bpl.n	10002d78 <GLCD_Initialize+0x1798>
10002d7e:	6802      	ldr	r2, [r0, #0]
10002d80:	2200      	movs	r2, #0
10002d82:	6002      	str	r2, [r0, #0]
10002d84:	6842      	ldr	r2, [r0, #4]
10002d86:	0752      	lsls	r2, r2, #29
10002d88:	d5fc      	bpl.n	10002d84 <GLCD_Initialize+0x17a4>
10002d8a:	6802      	ldr	r2, [r0, #0]
10002d8c:	220e      	movs	r2, #14
10002d8e:	6002      	str	r2, [r0, #0]
10002d90:	6842      	ldr	r2, [r0, #4]
10002d92:	0752      	lsls	r2, r2, #29
10002d94:	d5fc      	bpl.n	10002d90 <GLCD_Initialize+0x17b0>
10002d96:	6802      	ldr	r2, [r0, #0]
10002d98:	680a      	ldr	r2, [r1, #0]
10002d9a:	f042 0201 	orr.w	r2, r2, #1
10002d9e:	600a      	str	r2, [r1, #0]
10002da0:	680a      	ldr	r2, [r1, #0]
10002da2:	f022 0201 	bic.w	r2, r2, #1
10002da6:	600a      	str	r2, [r1, #0]
10002da8:	2272      	movs	r2, #114	@ 0x72
10002daa:	6002      	str	r2, [r0, #0]
10002dac:	6842      	ldr	r2, [r0, #4]
10002dae:	0752      	lsls	r2, r2, #29
10002db0:	d5fc      	bpl.n	10002dac <GLCD_Initialize+0x17cc>
10002db2:	6802      	ldr	r2, [r0, #0]
10002db4:	2200      	movs	r2, #0
10002db6:	6002      	str	r2, [r0, #0]
10002db8:	6842      	ldr	r2, [r0, #4]
10002dba:	0752      	lsls	r2, r2, #29
10002dbc:	d5fc      	bpl.n	10002db8 <GLCD_Initialize+0x17d8>
10002dbe:	6802      	ldr	r2, [r0, #0]
10002dc0:	2200      	movs	r2, #0
10002dc2:	6002      	str	r2, [r0, #0]
10002dc4:	6842      	ldr	r2, [r0, #4]
10002dc6:	0752      	lsls	r2, r2, #29
10002dc8:	d5fc      	bpl.n	10002dc4 <GLCD_Initialize+0x17e4>
10002dca:	6802      	ldr	r2, [r0, #0]
10002dcc:	680a      	ldr	r2, [r1, #0]
10002dce:	f042 0201 	orr.w	r2, r2, #1
10002dd2:	600a      	str	r2, [r1, #0]
10002dd4:	680a      	ldr	r2, [r1, #0]
10002dd6:	f022 0201 	bic.w	r2, r2, #1
10002dda:	600a      	str	r2, [r1, #0]
10002ddc:	2270      	movs	r2, #112	@ 0x70
10002dde:	6002      	str	r2, [r0, #0]
10002de0:	6842      	ldr	r2, [r0, #4]
10002de2:	0752      	lsls	r2, r2, #29
10002de4:	d5fc      	bpl.n	10002de0 <GLCD_Initialize+0x1800>
10002de6:	6802      	ldr	r2, [r0, #0]
10002de8:	2200      	movs	r2, #0
10002dea:	6002      	str	r2, [r0, #0]
10002dec:	6842      	ldr	r2, [r0, #4]
10002dee:	0752      	lsls	r2, r2, #29
10002df0:	d5fc      	bpl.n	10002dec <GLCD_Initialize+0x180c>
10002df2:	6802      	ldr	r2, [r0, #0]
10002df4:	220f      	movs	r2, #15
10002df6:	6002      	str	r2, [r0, #0]
10002df8:	6842      	ldr	r2, [r0, #4]
10002dfa:	0752      	lsls	r2, r2, #29
10002dfc:	d5fc      	bpl.n	10002df8 <GLCD_Initialize+0x1818>
10002dfe:	6802      	ldr	r2, [r0, #0]
10002e00:	680a      	ldr	r2, [r1, #0]
10002e02:	f042 0201 	orr.w	r2, r2, #1
10002e06:	600a      	str	r2, [r1, #0]
10002e08:	680a      	ldr	r2, [r1, #0]
10002e0a:	f022 0201 	bic.w	r2, r2, #1
10002e0e:	600a      	str	r2, [r1, #0]
10002e10:	2272      	movs	r2, #114	@ 0x72
10002e12:	6002      	str	r2, [r0, #0]
10002e14:	6842      	ldr	r2, [r0, #4]
10002e16:	0752      	lsls	r2, r2, #29
10002e18:	d5fc      	bpl.n	10002e14 <GLCD_Initialize+0x1834>
10002e1a:	6802      	ldr	r2, [r0, #0]
10002e1c:	2200      	movs	r2, #0
10002e1e:	6002      	str	r2, [r0, #0]
10002e20:	6842      	ldr	r2, [r0, #4]
10002e22:	0752      	lsls	r2, r2, #29
10002e24:	d5fc      	bpl.n	10002e20 <GLCD_Initialize+0x1840>
10002e26:	6802      	ldr	r2, [r0, #0]
10002e28:	2200      	movs	r2, #0
10002e2a:	6002      	str	r2, [r0, #0]
10002e2c:	6842      	ldr	r2, [r0, #4]
10002e2e:	0752      	lsls	r2, r2, #29
10002e30:	d5fc      	bpl.n	10002e2c <GLCD_Initialize+0x184c>
10002e32:	6802      	ldr	r2, [r0, #0]
10002e34:	680a      	ldr	r2, [r1, #0]
10002e36:	f042 0201 	orr.w	r2, r2, #1
10002e3a:	600a      	str	r2, [r1, #0]
10002e3c:	680a      	ldr	r2, [r1, #0]
10002e3e:	f022 0201 	bic.w	r2, r2, #1
10002e42:	600a      	str	r2, [r1, #0]
10002e44:	2270      	movs	r2, #112	@ 0x70
10002e46:	6002      	str	r2, [r0, #0]
10002e48:	6842      	ldr	r2, [r0, #4]
10002e4a:	0752      	lsls	r2, r2, #29
10002e4c:	d5fc      	bpl.n	10002e48 <GLCD_Initialize+0x1868>
10002e4e:	6802      	ldr	r2, [r0, #0]
10002e50:	2200      	movs	r2, #0
10002e52:	6002      	str	r2, [r0, #0]
10002e54:	6842      	ldr	r2, [r0, #4]
10002e56:	0752      	lsls	r2, r2, #29
10002e58:	d5fc      	bpl.n	10002e54 <GLCD_Initialize+0x1874>
10002e5a:	6802      	ldr	r2, [r0, #0]
10002e5c:	2210      	movs	r2, #16
10002e5e:	6002      	str	r2, [r0, #0]
10002e60:	6842      	ldr	r2, [r0, #4]
10002e62:	0752      	lsls	r2, r2, #29
10002e64:	d5fc      	bpl.n	10002e60 <GLCD_Initialize+0x1880>
10002e66:	6802      	ldr	r2, [r0, #0]
10002e68:	680a      	ldr	r2, [r1, #0]
10002e6a:	f042 0201 	orr.w	r2, r2, #1
10002e6e:	600a      	str	r2, [r1, #0]
10002e70:	680a      	ldr	r2, [r1, #0]
10002e72:	f022 0201 	bic.w	r2, r2, #1
10002e76:	600a      	str	r2, [r1, #0]
10002e78:	2272      	movs	r2, #114	@ 0x72
10002e7a:	6002      	str	r2, [r0, #0]
10002e7c:	6842      	ldr	r2, [r0, #4]
10002e7e:	0752      	lsls	r2, r2, #29
10002e80:	d5fc      	bpl.n	10002e7c <GLCD_Initialize+0x189c>
10002e82:	6802      	ldr	r2, [r0, #0]
10002e84:	2200      	movs	r2, #0
10002e86:	6002      	str	r2, [r0, #0]
10002e88:	6842      	ldr	r2, [r0, #4]
10002e8a:	0752      	lsls	r2, r2, #29
10002e8c:	d5fc      	bpl.n	10002e88 <GLCD_Initialize+0x18a8>
10002e8e:	6802      	ldr	r2, [r0, #0]
10002e90:	2201      	movs	r2, #1
10002e92:	6002      	str	r2, [r0, #0]
10002e94:	6842      	ldr	r2, [r0, #4]
10002e96:	0752      	lsls	r2, r2, #29
10002e98:	d5fc      	bpl.n	10002e94 <GLCD_Initialize+0x18b4>
10002e9a:	6802      	ldr	r2, [r0, #0]
10002e9c:	680a      	ldr	r2, [r1, #0]
10002e9e:	f042 0201 	orr.w	r2, r2, #1
10002ea2:	600a      	str	r2, [r1, #0]
10002ea4:	680a      	ldr	r2, [r1, #0]
10002ea6:	f022 0201 	bic.w	r2, r2, #1
10002eaa:	600a      	str	r2, [r1, #0]
10002eac:	2270      	movs	r2, #112	@ 0x70
10002eae:	6002      	str	r2, [r0, #0]
10002eb0:	6842      	ldr	r2, [r0, #4]
10002eb2:	0752      	lsls	r2, r2, #29
10002eb4:	d5fc      	bpl.n	10002eb0 <GLCD_Initialize+0x18d0>
10002eb6:	6802      	ldr	r2, [r0, #0]
10002eb8:	2200      	movs	r2, #0
10002eba:	6002      	str	r2, [r0, #0]
10002ebc:	6842      	ldr	r2, [r0, #4]
10002ebe:	0752      	lsls	r2, r2, #29
10002ec0:	d5fc      	bpl.n	10002ebc <GLCD_Initialize+0x18dc>
10002ec2:	6802      	ldr	r2, [r0, #0]
10002ec4:	2211      	movs	r2, #17
10002ec6:	6002      	str	r2, [r0, #0]
10002ec8:	6842      	ldr	r2, [r0, #4]
10002eca:	0752      	lsls	r2, r2, #29
10002ecc:	d5fc      	bpl.n	10002ec8 <GLCD_Initialize+0x18e8>
10002ece:	6802      	ldr	r2, [r0, #0]
10002ed0:	680a      	ldr	r2, [r1, #0]
10002ed2:	f042 0201 	orr.w	r2, r2, #1
10002ed6:	600a      	str	r2, [r1, #0]
10002ed8:	680a      	ldr	r2, [r1, #0]
10002eda:	f022 0201 	bic.w	r2, r2, #1
10002ede:	600a      	str	r2, [r1, #0]
10002ee0:	2272      	movs	r2, #114	@ 0x72
10002ee2:	6002      	str	r2, [r0, #0]
10002ee4:	6842      	ldr	r2, [r0, #4]
10002ee6:	0752      	lsls	r2, r2, #29
10002ee8:	d5fc      	bpl.n	10002ee4 <GLCD_Initialize+0x1904>
10002eea:	6802      	ldr	r2, [r0, #0]
10002eec:	2200      	movs	r2, #0
10002eee:	6002      	str	r2, [r0, #0]
10002ef0:	6842      	ldr	r2, [r0, #4]
10002ef2:	0752      	lsls	r2, r2, #29
10002ef4:	d5fc      	bpl.n	10002ef0 <GLCD_Initialize+0x1910>
10002ef6:	6802      	ldr	r2, [r0, #0]
10002ef8:	2240      	movs	r2, #64	@ 0x40
10002efa:	6002      	str	r2, [r0, #0]
10002efc:	6842      	ldr	r2, [r0, #4]
10002efe:	0752      	lsls	r2, r2, #29
10002f00:	d5fc      	bpl.n	10002efc <GLCD_Initialize+0x191c>
10002f02:	6802      	ldr	r2, [r0, #0]
10002f04:	680a      	ldr	r2, [r1, #0]
10002f06:	f042 0201 	orr.w	r2, r2, #1
10002f0a:	600a      	str	r2, [r1, #0]
10002f0c:	680a      	ldr	r2, [r1, #0]
10002f0e:	f022 0201 	bic.w	r2, r2, #1
10002f12:	600a      	str	r2, [r1, #0]
10002f14:	2270      	movs	r2, #112	@ 0x70
10002f16:	6002      	str	r2, [r0, #0]
10002f18:	6842      	ldr	r2, [r0, #4]
10002f1a:	0752      	lsls	r2, r2, #29
10002f1c:	d5fc      	bpl.n	10002f18 <GLCD_Initialize+0x1938>
10002f1e:	6802      	ldr	r2, [r0, #0]
10002f20:	2200      	movs	r2, #0
10002f22:	6002      	str	r2, [r0, #0]
10002f24:	6842      	ldr	r2, [r0, #4]
10002f26:	0752      	lsls	r2, r2, #29
10002f28:	d5fc      	bpl.n	10002f24 <GLCD_Initialize+0x1944>
10002f2a:	6802      	ldr	r2, [r0, #0]
10002f2c:	2212      	movs	r2, #18
10002f2e:	6002      	str	r2, [r0, #0]
10002f30:	6842      	ldr	r2, [r0, #4]
10002f32:	0752      	lsls	r2, r2, #29
10002f34:	d5fc      	bpl.n	10002f30 <GLCD_Initialize+0x1950>
10002f36:	6802      	ldr	r2, [r0, #0]
10002f38:	680a      	ldr	r2, [r1, #0]
10002f3a:	f042 0201 	orr.w	r2, r2, #1
10002f3e:	600a      	str	r2, [r1, #0]
10002f40:	680a      	ldr	r2, [r1, #0]
10002f42:	f022 0201 	bic.w	r2, r2, #1
10002f46:	600a      	str	r2, [r1, #0]
10002f48:	2272      	movs	r2, #114	@ 0x72
10002f4a:	6002      	str	r2, [r0, #0]
10002f4c:	6842      	ldr	r2, [r0, #4]
10002f4e:	0752      	lsls	r2, r2, #29
10002f50:	d5fc      	bpl.n	10002f4c <GLCD_Initialize+0x196c>
10002f52:	6802      	ldr	r2, [r0, #0]
10002f54:	2200      	movs	r2, #0
10002f56:	6002      	str	r2, [r0, #0]
10002f58:	6842      	ldr	r2, [r0, #4]
10002f5a:	0752      	lsls	r2, r2, #29
10002f5c:	d5fc      	bpl.n	10002f58 <GLCD_Initialize+0x1978>
10002f5e:	6802      	ldr	r2, [r0, #0]
10002f60:	2200      	movs	r2, #0
10002f62:	6002      	str	r2, [r0, #0]
10002f64:	6842      	ldr	r2, [r0, #4]
10002f66:	0752      	lsls	r2, r2, #29
10002f68:	d5fc      	bpl.n	10002f64 <GLCD_Initialize+0x1984>
10002f6a:	6802      	ldr	r2, [r0, #0]
10002f6c:	680a      	ldr	r2, [r1, #0]
10002f6e:	f042 0201 	orr.w	r2, r2, #1
10002f72:	600a      	str	r2, [r1, #0]
10002f74:	680a      	ldr	r2, [r1, #0]
10002f76:	f022 0201 	bic.w	r2, r2, #1
10002f7a:	600a      	str	r2, [r1, #0]
10002f7c:	2270      	movs	r2, #112	@ 0x70
10002f7e:	6002      	str	r2, [r0, #0]
10002f80:	6842      	ldr	r2, [r0, #4]
10002f82:	0752      	lsls	r2, r2, #29
10002f84:	d5fc      	bpl.n	10002f80 <GLCD_Initialize+0x19a0>
10002f86:	6802      	ldr	r2, [r0, #0]
10002f88:	2200      	movs	r2, #0
10002f8a:	6002      	str	r2, [r0, #0]
10002f8c:	6842      	ldr	r2, [r0, #4]
10002f8e:	0752      	lsls	r2, r2, #29
10002f90:	d5fc      	bpl.n	10002f8c <GLCD_Initialize+0x19ac>
10002f92:	6802      	ldr	r2, [r0, #0]
10002f94:	2213      	movs	r2, #19
10002f96:	6002      	str	r2, [r0, #0]
10002f98:	6842      	ldr	r2, [r0, #4]
10002f9a:	0752      	lsls	r2, r2, #29
10002f9c:	d5fc      	bpl.n	10002f98 <GLCD_Initialize+0x19b8>
10002f9e:	6802      	ldr	r2, [r0, #0]
10002fa0:	680a      	ldr	r2, [r1, #0]
10002fa2:	f042 0201 	orr.w	r2, r2, #1
10002fa6:	600a      	str	r2, [r1, #0]
10002fa8:	680a      	ldr	r2, [r1, #0]
10002faa:	f022 0201 	bic.w	r2, r2, #1
10002fae:	600a      	str	r2, [r1, #0]
10002fb0:	2272      	movs	r2, #114	@ 0x72
10002fb2:	6002      	str	r2, [r0, #0]
10002fb4:	6842      	ldr	r2, [r0, #4]
10002fb6:	0752      	lsls	r2, r2, #29
10002fb8:	d5fc      	bpl.n	10002fb4 <GLCD_Initialize+0x19d4>
10002fba:	6802      	ldr	r2, [r0, #0]
10002fbc:	2200      	movs	r2, #0
10002fbe:	6002      	str	r2, [r0, #0]
10002fc0:	6842      	ldr	r2, [r0, #4]
10002fc2:	0752      	lsls	r2, r2, #29
10002fc4:	d5fc      	bpl.n	10002fc0 <GLCD_Initialize+0x19e0>
10002fc6:	6802      	ldr	r2, [r0, #0]
10002fc8:	2200      	movs	r2, #0
10002fca:	6002      	str	r2, [r0, #0]
10002fcc:	6842      	ldr	r2, [r0, #4]
10002fce:	0752      	lsls	r2, r2, #29
10002fd0:	d5fc      	bpl.n	10002fcc <GLCD_Initialize+0x19ec>
10002fd2:	6800      	ldr	r0, [r0, #0]
10002fd4:	6808      	ldr	r0, [r1, #0]
10002fd6:	f040 0001 	orr.w	r0, r0, #1
10002fda:	6008      	str	r0, [r1, #0]
10002fdc:	6808      	ldr	r0, [r1, #0]
10002fde:	f040 0240 	orr.w	r2, r0, #64	@ 0x40
10002fe2:	2000      	movs	r0, #0
10002fe4:	600a      	str	r2, [r1, #0]
10002fe6:	bd80      	pop	{r7, pc}

10002fe8 <GLCD_SetBackgroundColor>:
10002fe8:	f240 0220 	movw	r2, #32
10002fec:	4601      	mov	r1, r0
10002fee:	f6c3 0200 	movt	r2, #14336	@ 0x3800
10002ff2:	2000      	movs	r0, #0
10002ff4:	8011      	strh	r1, [r2, #0]
10002ff6:	4770      	bx	lr

10002ff8 <GLCD_SetFont>:
10002ff8:	f240 12b4 	movw	r2, #436	@ 0x1b4
10002ffc:	4601      	mov	r1, r0
10002ffe:	f6c3 0200 	movt	r2, #14336	@ 0x3800
10003002:	2000      	movs	r0, #0
10003004:	6011      	str	r1, [r2, #0]
10003006:	4770      	bx	lr

10003008 <GLCD_SetForegroundColor>:
10003008:	f240 12bc 	movw	r2, #444	@ 0x1bc
1000300c:	4601      	mov	r1, r0
1000300e:	f6c3 0200 	movt	r2, #14336	@ 0x3800
10003012:	2000      	movs	r0, #0
10003014:	8011      	strh	r1, [r2, #0]
10003016:	4770      	bx	lr

10003018 <GLCD_SetWindow>:
10003018:	b5b0      	push	{r4, r5, r7, lr}
1000301a:	f242 0c4c 	movw	ip, #8268	@ 0x204c
1000301e:	f2c4 0c30 	movt	ip, #16432	@ 0x4030
10003022:	f8dc 5000 	ldr.w	r5, [ip]
10003026:	440b      	add	r3, r1
10003028:	f1a3 0e01 	sub.w	lr, r3, #1
1000302c:	f025 0301 	bic.w	r3, r5, #1
10003030:	f8cc 3000 	str.w	r3, [ip]
10003034:	f246 0308 	movw	r3, #24584	@ 0x6008
10003038:	1e44      	subs	r4, r0, #1
1000303a:	f2c4 0320 	movt	r3, #16416	@ 0x4020
1000303e:	2570      	movs	r5, #112	@ 0x70
10003040:	601d      	str	r5, [r3, #0]
10003042:	bf00      	nop
10003044:	685d      	ldr	r5, [r3, #4]
10003046:	076d      	lsls	r5, r5, #29
10003048:	d5fc      	bpl.n	10003044 <GLCD_SetWindow+0x2c>
1000304a:	4422      	add	r2, r4
1000304c:	681c      	ldr	r4, [r3, #0]
1000304e:	2400      	movs	r4, #0
10003050:	601c      	str	r4, [r3, #0]
10003052:	bf00      	nop
10003054:	685c      	ldr	r4, [r3, #4]
10003056:	0764      	lsls	r4, r4, #29
10003058:	d5fc      	bpl.n	10003054 <GLCD_SetWindow+0x3c>
1000305a:	681c      	ldr	r4, [r3, #0]
1000305c:	2402      	movs	r4, #2
1000305e:	601c      	str	r4, [r3, #0]
10003060:	685c      	ldr	r4, [r3, #4]
10003062:	0764      	lsls	r4, r4, #29
10003064:	d5fc      	bpl.n	10003060 <GLCD_SetWindow+0x48>
10003066:	681c      	ldr	r4, [r3, #0]
10003068:	f8dc 4000 	ldr.w	r4, [ip]
1000306c:	f044 0401 	orr.w	r4, r4, #1
10003070:	f8cc 4000 	str.w	r4, [ip]
10003074:	f8dc 4000 	ldr.w	r4, [ip]
10003078:	f024 0401 	bic.w	r4, r4, #1
1000307c:	f8cc 4000 	str.w	r4, [ip]
10003080:	2472      	movs	r4, #114	@ 0x72
10003082:	601c      	str	r4, [r3, #0]
10003084:	685c      	ldr	r4, [r3, #4]
10003086:	0764      	lsls	r4, r4, #29
10003088:	d5fc      	bpl.n	10003084 <GLCD_SetWindow+0x6c>
1000308a:	f3c0 4407 	ubfx	r4, r0, #16, #8
1000308e:	681d      	ldr	r5, [r3, #0]
10003090:	601c      	str	r4, [r3, #0]
10003092:	bf00      	nop
10003094:	685c      	ldr	r4, [r3, #4]
10003096:	0764      	lsls	r4, r4, #29
10003098:	d5fc      	bpl.n	10003094 <GLCD_SetWindow+0x7c>
1000309a:	f3c0 2407 	ubfx	r4, r0, #8, #8
1000309e:	681d      	ldr	r5, [r3, #0]
100030a0:	601c      	str	r4, [r3, #0]
100030a2:	bf00      	nop
100030a4:	685c      	ldr	r4, [r3, #4]
100030a6:	0764      	lsls	r4, r4, #29
100030a8:	d5fc      	bpl.n	100030a4 <GLCD_SetWindow+0x8c>
100030aa:	681c      	ldr	r4, [r3, #0]
100030ac:	f8dc 4000 	ldr.w	r4, [ip]
100030b0:	f044 0401 	orr.w	r4, r4, #1
100030b4:	f8cc 4000 	str.w	r4, [ip]
100030b8:	f8dc 4000 	ldr.w	r4, [ip]
100030bc:	f024 0401 	bic.w	r4, r4, #1
100030c0:	f8cc 4000 	str.w	r4, [ip]
100030c4:	2470      	movs	r4, #112	@ 0x70
100030c6:	601c      	str	r4, [r3, #0]
100030c8:	685c      	ldr	r4, [r3, #4]
100030ca:	0764      	lsls	r4, r4, #29
100030cc:	d5fc      	bpl.n	100030c8 <GLCD_SetWindow+0xb0>
100030ce:	681c      	ldr	r4, [r3, #0]
100030d0:	2400      	movs	r4, #0
100030d2:	601c      	str	r4, [r3, #0]
100030d4:	685c      	ldr	r4, [r3, #4]
100030d6:	0764      	lsls	r4, r4, #29
100030d8:	d5fc      	bpl.n	100030d4 <GLCD_SetWindow+0xbc>
100030da:	681c      	ldr	r4, [r3, #0]
100030dc:	2403      	movs	r4, #3
100030de:	601c      	str	r4, [r3, #0]
100030e0:	685c      	ldr	r4, [r3, #4]
100030e2:	0764      	lsls	r4, r4, #29
100030e4:	d5fc      	bpl.n	100030e0 <GLCD_SetWindow+0xc8>
100030e6:	681c      	ldr	r4, [r3, #0]
100030e8:	f8dc 4000 	ldr.w	r4, [ip]
100030ec:	f044 0401 	orr.w	r4, r4, #1
100030f0:	f8cc 4000 	str.w	r4, [ip]
100030f4:	f8dc 4000 	ldr.w	r4, [ip]
100030f8:	f024 0401 	bic.w	r4, r4, #1
100030fc:	f8cc 4000 	str.w	r4, [ip]
10003100:	2472      	movs	r4, #114	@ 0x72
10003102:	601c      	str	r4, [r3, #0]
10003104:	685c      	ldr	r4, [r3, #4]
10003106:	0764      	lsls	r4, r4, #29
10003108:	d5fc      	bpl.n	10003104 <GLCD_SetWindow+0xec>
1000310a:	681c      	ldr	r4, [r3, #0]
1000310c:	2400      	movs	r4, #0
1000310e:	601c      	str	r4, [r3, #0]
10003110:	685c      	ldr	r4, [r3, #4]
10003112:	0764      	lsls	r4, r4, #29
10003114:	d5fc      	bpl.n	10003110 <GLCD_SetWindow+0xf8>
10003116:	b2c0      	uxtb	r0, r0
10003118:	681c      	ldr	r4, [r3, #0]
1000311a:	6018      	str	r0, [r3, #0]
1000311c:	6858      	ldr	r0, [r3, #4]
1000311e:	0740      	lsls	r0, r0, #29
10003120:	d5fc      	bpl.n	1000311c <GLCD_SetWindow+0x104>
10003122:	6818      	ldr	r0, [r3, #0]
10003124:	f8dc 0000 	ldr.w	r0, [ip]
10003128:	f040 0001 	orr.w	r0, r0, #1
1000312c:	f8cc 0000 	str.w	r0, [ip]
10003130:	f8dc 0000 	ldr.w	r0, [ip]
10003134:	f020 0001 	bic.w	r0, r0, #1
10003138:	f8cc 0000 	str.w	r0, [ip]
1000313c:	2070      	movs	r0, #112	@ 0x70
1000313e:	6018      	str	r0, [r3, #0]
10003140:	6858      	ldr	r0, [r3, #4]
10003142:	0740      	lsls	r0, r0, #29
10003144:	d5fc      	bpl.n	10003140 <GLCD_SetWindow+0x128>
10003146:	6818      	ldr	r0, [r3, #0]
10003148:	2000      	movs	r0, #0
1000314a:	6018      	str	r0, [r3, #0]
1000314c:	6858      	ldr	r0, [r3, #4]
1000314e:	0740      	lsls	r0, r0, #29
10003150:	d5fc      	bpl.n	1000314c <GLCD_SetWindow+0x134>
10003152:	6818      	ldr	r0, [r3, #0]
10003154:	2004      	movs	r0, #4
10003156:	6018      	str	r0, [r3, #0]
10003158:	6858      	ldr	r0, [r3, #4]
1000315a:	0740      	lsls	r0, r0, #29
1000315c:	d5fc      	bpl.n	10003158 <GLCD_SetWindow+0x140>
1000315e:	6818      	ldr	r0, [r3, #0]
10003160:	f8dc 0000 	ldr.w	r0, [ip]
10003164:	f040 0001 	orr.w	r0, r0, #1
10003168:	f8cc 0000 	str.w	r0, [ip]
1000316c:	f8dc 0000 	ldr.w	r0, [ip]
10003170:	f020 0001 	bic.w	r0, r0, #1
10003174:	f8cc 0000 	str.w	r0, [ip]
10003178:	2072      	movs	r0, #114	@ 0x72
1000317a:	6018      	str	r0, [r3, #0]
1000317c:	6858      	ldr	r0, [r3, #4]
1000317e:	0740      	lsls	r0, r0, #29
10003180:	d5fc      	bpl.n	1000317c <GLCD_SetWindow+0x164>
10003182:	f3c2 4007 	ubfx	r0, r2, #16, #8
10003186:	681c      	ldr	r4, [r3, #0]
10003188:	6018      	str	r0, [r3, #0]
1000318a:	bf00      	nop
1000318c:	6858      	ldr	r0, [r3, #4]
1000318e:	0740      	lsls	r0, r0, #29
10003190:	d5fc      	bpl.n	1000318c <GLCD_SetWindow+0x174>
10003192:	f3c2 2007 	ubfx	r0, r2, #8, #8
10003196:	681c      	ldr	r4, [r3, #0]
10003198:	6018      	str	r0, [r3, #0]
1000319a:	bf00      	nop
1000319c:	6858      	ldr	r0, [r3, #4]
1000319e:	0740      	lsls	r0, r0, #29
100031a0:	d5fc      	bpl.n	1000319c <GLCD_SetWindow+0x184>
100031a2:	6818      	ldr	r0, [r3, #0]
100031a4:	f8dc 0000 	ldr.w	r0, [ip]
100031a8:	f040 0001 	orr.w	r0, r0, #1
100031ac:	f8cc 0000 	str.w	r0, [ip]
100031b0:	f8dc 0000 	ldr.w	r0, [ip]
100031b4:	f020 0001 	bic.w	r0, r0, #1
100031b8:	f8cc 0000 	str.w	r0, [ip]
100031bc:	2070      	movs	r0, #112	@ 0x70
100031be:	6018      	str	r0, [r3, #0]
100031c0:	6858      	ldr	r0, [r3, #4]
100031c2:	0740      	lsls	r0, r0, #29
100031c4:	d5fc      	bpl.n	100031c0 <GLCD_SetWindow+0x1a8>
100031c6:	6818      	ldr	r0, [r3, #0]
100031c8:	2000      	movs	r0, #0
100031ca:	6018      	str	r0, [r3, #0]
100031cc:	6858      	ldr	r0, [r3, #4]
100031ce:	0740      	lsls	r0, r0, #29
100031d0:	d5fc      	bpl.n	100031cc <GLCD_SetWindow+0x1b4>
100031d2:	6818      	ldr	r0, [r3, #0]
100031d4:	2005      	movs	r0, #5
100031d6:	6018      	str	r0, [r3, #0]
100031d8:	6858      	ldr	r0, [r3, #4]
100031da:	0740      	lsls	r0, r0, #29
100031dc:	d5fc      	bpl.n	100031d8 <GLCD_SetWindow+0x1c0>
100031de:	6818      	ldr	r0, [r3, #0]
100031e0:	f8dc 0000 	ldr.w	r0, [ip]
100031e4:	f040 0001 	orr.w	r0, r0, #1
100031e8:	f8cc 0000 	str.w	r0, [ip]
100031ec:	f8dc 0000 	ldr.w	r0, [ip]
100031f0:	f020 0001 	bic.w	r0, r0, #1
100031f4:	f8cc 0000 	str.w	r0, [ip]
100031f8:	2072      	movs	r0, #114	@ 0x72
100031fa:	6018      	str	r0, [r3, #0]
100031fc:	6858      	ldr	r0, [r3, #4]
100031fe:	0740      	lsls	r0, r0, #29
10003200:	d5fc      	bpl.n	100031fc <GLCD_SetWindow+0x1e4>
10003202:	6818      	ldr	r0, [r3, #0]
10003204:	2000      	movs	r0, #0
10003206:	6018      	str	r0, [r3, #0]
10003208:	6858      	ldr	r0, [r3, #4]
1000320a:	0740      	lsls	r0, r0, #29
1000320c:	d5fc      	bpl.n	10003208 <GLCD_SetWindow+0x1f0>
1000320e:	b2d0      	uxtb	r0, r2
10003210:	681a      	ldr	r2, [r3, #0]
10003212:	6018      	str	r0, [r3, #0]
10003214:	6858      	ldr	r0, [r3, #4]
10003216:	0740      	lsls	r0, r0, #29
10003218:	d5fc      	bpl.n	10003214 <GLCD_SetWindow+0x1fc>
1000321a:	6818      	ldr	r0, [r3, #0]
1000321c:	f8dc 0000 	ldr.w	r0, [ip]
10003220:	f040 0001 	orr.w	r0, r0, #1
10003224:	f8cc 0000 	str.w	r0, [ip]
10003228:	f8dc 0000 	ldr.w	r0, [ip]
1000322c:	f020 0001 	bic.w	r0, r0, #1
10003230:	f8cc 0000 	str.w	r0, [ip]
10003234:	2070      	movs	r0, #112	@ 0x70
10003236:	6018      	str	r0, [r3, #0]
10003238:	6858      	ldr	r0, [r3, #4]
1000323a:	0740      	lsls	r0, r0, #29
1000323c:	d5fc      	bpl.n	10003238 <GLCD_SetWindow+0x220>
1000323e:	6818      	ldr	r0, [r3, #0]
10003240:	2000      	movs	r0, #0
10003242:	6018      	str	r0, [r3, #0]
10003244:	6858      	ldr	r0, [r3, #4]
10003246:	0740      	lsls	r0, r0, #29
10003248:	d5fc      	bpl.n	10003244 <GLCD_SetWindow+0x22c>
1000324a:	6818      	ldr	r0, [r3, #0]
1000324c:	2006      	movs	r0, #6
1000324e:	6018      	str	r0, [r3, #0]
10003250:	6858      	ldr	r0, [r3, #4]
10003252:	0740      	lsls	r0, r0, #29
10003254:	d5fc      	bpl.n	10003250 <GLCD_SetWindow+0x238>
10003256:	6818      	ldr	r0, [r3, #0]
10003258:	f8dc 0000 	ldr.w	r0, [ip]
1000325c:	f040 0001 	orr.w	r0, r0, #1
10003260:	f8cc 0000 	str.w	r0, [ip]
10003264:	f8dc 0000 	ldr.w	r0, [ip]
10003268:	f020 0001 	bic.w	r0, r0, #1
1000326c:	f8cc 0000 	str.w	r0, [ip]
10003270:	2072      	movs	r0, #114	@ 0x72
10003272:	6018      	str	r0, [r3, #0]
10003274:	6858      	ldr	r0, [r3, #4]
10003276:	0740      	lsls	r0, r0, #29
10003278:	d5fc      	bpl.n	10003274 <GLCD_SetWindow+0x25c>
1000327a:	f3c1 4007 	ubfx	r0, r1, #16, #8
1000327e:	681a      	ldr	r2, [r3, #0]
10003280:	6018      	str	r0, [r3, #0]
10003282:	bf00      	nop
10003284:	6858      	ldr	r0, [r3, #4]
10003286:	0740      	lsls	r0, r0, #29
10003288:	d5fc      	bpl.n	10003284 <GLCD_SetWindow+0x26c>
1000328a:	f3c1 2007 	ubfx	r0, r1, #8, #8
1000328e:	681a      	ldr	r2, [r3, #0]
10003290:	6018      	str	r0, [r3, #0]
10003292:	bf00      	nop
10003294:	6858      	ldr	r0, [r3, #4]
10003296:	0740      	lsls	r0, r0, #29
10003298:	d5fc      	bpl.n	10003294 <GLCD_SetWindow+0x27c>
1000329a:	6818      	ldr	r0, [r3, #0]
1000329c:	f8dc 0000 	ldr.w	r0, [ip]
100032a0:	f040 0001 	orr.w	r0, r0, #1
100032a4:	f8cc 0000 	str.w	r0, [ip]
100032a8:	f8dc 0000 	ldr.w	r0, [ip]
100032ac:	f020 0001 	bic.w	r0, r0, #1
100032b0:	f8cc 0000 	str.w	r0, [ip]
100032b4:	2070      	movs	r0, #112	@ 0x70
100032b6:	6018      	str	r0, [r3, #0]
100032b8:	6858      	ldr	r0, [r3, #4]
100032ba:	0740      	lsls	r0, r0, #29
100032bc:	d5fc      	bpl.n	100032b8 <GLCD_SetWindow+0x2a0>
100032be:	6818      	ldr	r0, [r3, #0]
100032c0:	2000      	movs	r0, #0
100032c2:	6018      	str	r0, [r3, #0]
100032c4:	6858      	ldr	r0, [r3, #4]
100032c6:	0740      	lsls	r0, r0, #29
100032c8:	d5fc      	bpl.n	100032c4 <GLCD_SetWindow+0x2ac>
100032ca:	6818      	ldr	r0, [r3, #0]
100032cc:	2007      	movs	r0, #7
100032ce:	6018      	str	r0, [r3, #0]
100032d0:	6858      	ldr	r0, [r3, #4]
100032d2:	0740      	lsls	r0, r0, #29
100032d4:	d5fc      	bpl.n	100032d0 <GLCD_SetWindow+0x2b8>
100032d6:	6818      	ldr	r0, [r3, #0]
100032d8:	f8dc 0000 	ldr.w	r0, [ip]
100032dc:	f040 0001 	orr.w	r0, r0, #1
100032e0:	f8cc 0000 	str.w	r0, [ip]
100032e4:	f8dc 0000 	ldr.w	r0, [ip]
100032e8:	f020 0001 	bic.w	r0, r0, #1
100032ec:	f8cc 0000 	str.w	r0, [ip]
100032f0:	2072      	movs	r0, #114	@ 0x72
100032f2:	6018      	str	r0, [r3, #0]
100032f4:	6858      	ldr	r0, [r3, #4]
100032f6:	0740      	lsls	r0, r0, #29
100032f8:	d5fc      	bpl.n	100032f4 <GLCD_SetWindow+0x2dc>
100032fa:	6818      	ldr	r0, [r3, #0]
100032fc:	2000      	movs	r0, #0
100032fe:	6018      	str	r0, [r3, #0]
10003300:	6858      	ldr	r0, [r3, #4]
10003302:	0740      	lsls	r0, r0, #29
10003304:	d5fc      	bpl.n	10003300 <GLCD_SetWindow+0x2e8>
10003306:	b2c8      	uxtb	r0, r1
10003308:	6819      	ldr	r1, [r3, #0]
1000330a:	6018      	str	r0, [r3, #0]
1000330c:	6858      	ldr	r0, [r3, #4]
1000330e:	0740      	lsls	r0, r0, #29
10003310:	d5fc      	bpl.n	1000330c <GLCD_SetWindow+0x2f4>
10003312:	6818      	ldr	r0, [r3, #0]
10003314:	f8dc 0000 	ldr.w	r0, [ip]
10003318:	f040 0001 	orr.w	r0, r0, #1
1000331c:	f8cc 0000 	str.w	r0, [ip]
10003320:	f8dc 0000 	ldr.w	r0, [ip]
10003324:	f020 0001 	bic.w	r0, r0, #1
10003328:	f8cc 0000 	str.w	r0, [ip]
1000332c:	2070      	movs	r0, #112	@ 0x70
1000332e:	6018      	str	r0, [r3, #0]
10003330:	6858      	ldr	r0, [r3, #4]
10003332:	0740      	lsls	r0, r0, #29
10003334:	d5fc      	bpl.n	10003330 <GLCD_SetWindow+0x318>
10003336:	6818      	ldr	r0, [r3, #0]
10003338:	2000      	movs	r0, #0
1000333a:	6018      	str	r0, [r3, #0]
1000333c:	6858      	ldr	r0, [r3, #4]
1000333e:	0740      	lsls	r0, r0, #29
10003340:	d5fc      	bpl.n	1000333c <GLCD_SetWindow+0x324>
10003342:	6818      	ldr	r0, [r3, #0]
10003344:	2008      	movs	r0, #8
10003346:	6018      	str	r0, [r3, #0]
10003348:	6858      	ldr	r0, [r3, #4]
1000334a:	0740      	lsls	r0, r0, #29
1000334c:	d5fc      	bpl.n	10003348 <GLCD_SetWindow+0x330>
1000334e:	6818      	ldr	r0, [r3, #0]
10003350:	f8dc 0000 	ldr.w	r0, [ip]
10003354:	f040 0001 	orr.w	r0, r0, #1
10003358:	f8cc 0000 	str.w	r0, [ip]
1000335c:	f8dc 0000 	ldr.w	r0, [ip]
10003360:	f020 0001 	bic.w	r0, r0, #1
10003364:	f8cc 0000 	str.w	r0, [ip]
10003368:	2072      	movs	r0, #114	@ 0x72
1000336a:	6018      	str	r0, [r3, #0]
1000336c:	6858      	ldr	r0, [r3, #4]
1000336e:	0740      	lsls	r0, r0, #29
10003370:	d5fc      	bpl.n	1000336c <GLCD_SetWindow+0x354>
10003372:	f3ce 4007 	ubfx	r0, lr, #16, #8
10003376:	6819      	ldr	r1, [r3, #0]
10003378:	6018      	str	r0, [r3, #0]
1000337a:	bf00      	nop
1000337c:	6858      	ldr	r0, [r3, #4]
1000337e:	0740      	lsls	r0, r0, #29
10003380:	d5fc      	bpl.n	1000337c <GLCD_SetWindow+0x364>
10003382:	f3ce 2007 	ubfx	r0, lr, #8, #8
10003386:	6819      	ldr	r1, [r3, #0]
10003388:	6018      	str	r0, [r3, #0]
1000338a:	bf00      	nop
1000338c:	6858      	ldr	r0, [r3, #4]
1000338e:	0740      	lsls	r0, r0, #29
10003390:	d5fc      	bpl.n	1000338c <GLCD_SetWindow+0x374>
10003392:	6818      	ldr	r0, [r3, #0]
10003394:	f8dc 0000 	ldr.w	r0, [ip]
10003398:	f040 0001 	orr.w	r0, r0, #1
1000339c:	f8cc 0000 	str.w	r0, [ip]
100033a0:	f8dc 0000 	ldr.w	r0, [ip]
100033a4:	f020 0001 	bic.w	r0, r0, #1
100033a8:	f8cc 0000 	str.w	r0, [ip]
100033ac:	2070      	movs	r0, #112	@ 0x70
100033ae:	6018      	str	r0, [r3, #0]
100033b0:	6858      	ldr	r0, [r3, #4]
100033b2:	0740      	lsls	r0, r0, #29
100033b4:	d5fc      	bpl.n	100033b0 <GLCD_SetWindow+0x398>
100033b6:	6818      	ldr	r0, [r3, #0]
100033b8:	2000      	movs	r0, #0
100033ba:	6018      	str	r0, [r3, #0]
100033bc:	6858      	ldr	r0, [r3, #4]
100033be:	0740      	lsls	r0, r0, #29
100033c0:	d5fc      	bpl.n	100033bc <GLCD_SetWindow+0x3a4>
100033c2:	6818      	ldr	r0, [r3, #0]
100033c4:	2009      	movs	r0, #9
100033c6:	6018      	str	r0, [r3, #0]
100033c8:	6858      	ldr	r0, [r3, #4]
100033ca:	0740      	lsls	r0, r0, #29
100033cc:	d5fc      	bpl.n	100033c8 <GLCD_SetWindow+0x3b0>
100033ce:	6818      	ldr	r0, [r3, #0]
100033d0:	f8dc 0000 	ldr.w	r0, [ip]
100033d4:	f040 0001 	orr.w	r0, r0, #1
100033d8:	f8cc 0000 	str.w	r0, [ip]
100033dc:	f8dc 0000 	ldr.w	r0, [ip]
100033e0:	f020 0001 	bic.w	r0, r0, #1
100033e4:	f8cc 0000 	str.w	r0, [ip]
100033e8:	2072      	movs	r0, #114	@ 0x72
100033ea:	6018      	str	r0, [r3, #0]
100033ec:	6858      	ldr	r0, [r3, #4]
100033ee:	0740      	lsls	r0, r0, #29
100033f0:	d5fc      	bpl.n	100033ec <GLCD_SetWindow+0x3d4>
100033f2:	6818      	ldr	r0, [r3, #0]
100033f4:	2000      	movs	r0, #0
100033f6:	6018      	str	r0, [r3, #0]
100033f8:	6858      	ldr	r0, [r3, #4]
100033fa:	0740      	lsls	r0, r0, #29
100033fc:	d5fc      	bpl.n	100033f8 <GLCD_SetWindow+0x3e0>
100033fe:	fa5f f08e 	uxtb.w	r0, lr
10003402:	6819      	ldr	r1, [r3, #0]
10003404:	6018      	str	r0, [r3, #0]
10003406:	bf00      	nop
10003408:	6858      	ldr	r0, [r3, #4]
1000340a:	0740      	lsls	r0, r0, #29
1000340c:	d5fc      	bpl.n	10003408 <GLCD_SetWindow+0x3f0>
1000340e:	6818      	ldr	r0, [r3, #0]
10003410:	f8dc 0000 	ldr.w	r0, [ip]
10003414:	f040 0001 	orr.w	r0, r0, #1
10003418:	f8cc 0000 	str.w	r0, [ip]
1000341c:	bdb0      	pop	{r4, r5, r7, pc}
	...

10003420 <HardFault_Handler>:
10003420:	b580      	push	{r7, lr}
10003422:	a002      	add	r0, pc, #8	@ (adr r0, 1000342c <HardFault_Handler+0xc>)
10003424:	f7fd f93c 	bl	100006a0 <puts>
10003428:	e7fe      	b.n	10003428 <HardFault_Handler+0x8>
1000342a:	bf00      	nop
1000342c:	474f4c5b 	.word	0x474f4c5b
10003430:	6148205d 	.word	0x6148205d
10003434:	46206472 	.word	0x46206472
10003438:	746c7561 	.word	0x746c7561
1000343c:	00000000 	.word	0x00000000

10003440 <LED_Initialize>:
10003440:	2204      	movs	r2, #4
10003442:	2100      	movs	r1, #0
10003444:	f2c4 0230 	movt	r2, #16432	@ 0x4030
10003448:	2000      	movs	r0, #0
1000344a:	6011      	str	r1, [r2, #0]
1000344c:	4770      	bx	lr
	...

10003450 <LED_Off>:
10003450:	2807      	cmp	r0, #7
10003452:	d809      	bhi.n	10003468 <LED_Off+0x18>
10003454:	2204      	movs	r2, #4
10003456:	f2c4 0230 	movt	r2, #16432	@ 0x4030
1000345a:	2101      	movs	r1, #1
1000345c:	6813      	ldr	r3, [r2, #0]
1000345e:	fa01 f000 	lsl.w	r0, r1, r0
10003462:	ea23 0000 	bic.w	r0, r3, r0
10003466:	6010      	str	r0, [r2, #0]
10003468:	2000      	movs	r0, #0
1000346a:	4770      	bx	lr

1000346c <LED_On>:
1000346c:	2807      	cmp	r0, #7
1000346e:	d808      	bhi.n	10003482 <LED_On+0x16>
10003470:	2204      	movs	r2, #4
10003472:	f2c4 0230 	movt	r2, #16432	@ 0x4030
10003476:	2101      	movs	r1, #1
10003478:	6813      	ldr	r3, [r2, #0]
1000347a:	fa01 f000 	lsl.w	r0, r1, r0
1000347e:	4318      	orrs	r0, r3
10003480:	6010      	str	r0, [r2, #0]
10003482:	2000      	movs	r0, #0
10003484:	4770      	bx	lr
	...

10003488 <Reset_Handler>:
10003488:	f64f 70f8 	movw	r0, #65528	@ 0xfff8
1000348c:	f6c3 001f 	movt	r0, #14367	@ 0x381f
10003490:	f380 8809 	msr	PSP, r0
10003494:	f64f 70f8 	movw	r0, #65528	@ 0xfff8
10003498:	f64e 52a5 	movw	r2, #60837	@ 0xeda5
1000349c:	f64f 31f8 	movw	r1, #64504	@ 0xfbf8
100034a0:	f6c3 001f 	movt	r0, #14367	@ 0x381f
100034a4:	f6cf 62f5 	movt	r2, #65269	@ 0xfef5
100034a8:	f6c3 011f 	movt	r1, #14367	@ 0x381f
100034ac:	f381 880a 	msr	MSPLIM, r1
100034b0:	f381 880b 	msr	PSPLIM, r1
100034b4:	e9c0 2200 	strd	r2, r2, [r0]
100034b8:	f000 fbdc 	bl	10003c74 <SystemInit>
100034bc:	f7fc ffa0 	bl	10000400 <__main>

100034c0 <__acle_se_SECURE_NOPE>:
100034c0:	f3ef 8c14 	mrs	ip, CONTROL
100034c4:	f01c 0f08 	tst.w	ip, #8
100034c8:	d017      	beq.n	100034fa <__acle_se_SECURE_NOPE+0x3a>
100034ca:	eef1 ca10 	vmrs	ip, fpscr
100034ce:	ec4e eb10 	vmov	d0, lr, lr
100034d2:	f02c 0c9f 	bic.w	ip, ip, #159	@ 0x9f
100034d6:	f02c 4c70 	bic.w	ip, ip, #4026531840	@ 0xf0000000
100034da:	eee1 ca10 	vmsr	fpscr, ip
100034de:	ec4e eb11 	vmov	d1, lr, lr
100034e2:	ec4e eb12 	vmov	d2, lr, lr
100034e6:	ec4e eb13 	vmov	d3, lr, lr
100034ea:	ec4e eb14 	vmov	d4, lr, lr
100034ee:	ec4e eb15 	vmov	d5, lr, lr
100034f2:	ec4e eb16 	vmov	d6, lr, lr
100034f6:	ec4e eb17 	vmov	d7, lr, lr
100034fa:	4670      	mov	r0, lr
100034fc:	4671      	mov	r1, lr
100034fe:	4672      	mov	r2, lr
10003500:	4673      	mov	r3, lr
10003502:	46f4      	mov	ip, lr
10003504:	f38e 8c00 	msr	CPSR_fs, lr
10003508:	4774      	bxns	lr
	...

1000350c <__acle_se_SECURE_log_call>:
1000350c:	e92d 049f 	stmdb	sp!, {r0, r1, r2, r3, r4, r7, sl}
10003510:	b087      	sub	sp, #28
10003512:	af00      	add	r7, sp, #0
10003514:	b580      	push	{r7, lr}
10003516:	b082      	sub	sp, #8
10003518:	af00      	add	r7, sp, #0
1000351a:	f1aa 0001 	sub.w	r0, sl, #1
1000351e:	f7fd fec5 	bl	100012ac <CFA_ENGINE_new_log_entry>
10003522:	bf00      	nop
10003524:	3708      	adds	r7, #8
10003526:	46bd      	mov	sp, r7
10003528:	e8bd 4080 	ldmia.w	sp!, {r7, lr}
1000352c:	4670      	mov	r0, lr
1000352e:	4671      	mov	r1, lr
10003530:	4672      	mov	r2, lr
10003532:	4673      	mov	r3, lr
10003534:	eeb7 0a00 	vmov.f32	s0, #112	@ 0x3f800000  1.0
10003538:	eef7 0a00 	vmov.f32	s1, #112	@ 0x3f800000  1.0
1000353c:	eeb7 1a00 	vmov.f32	s2, #112	@ 0x3f800000  1.0
10003540:	eef7 1a00 	vmov.f32	s3, #112	@ 0x3f800000  1.0
10003544:	eeb7 2a00 	vmov.f32	s4, #112	@ 0x3f800000  1.0
10003548:	eef7 2a00 	vmov.f32	s5, #112	@ 0x3f800000  1.0
1000354c:	eeb7 3a00 	vmov.f32	s6, #112	@ 0x3f800000  1.0
10003550:	eef7 3a00 	vmov.f32	s7, #112	@ 0x3f800000  1.0
10003554:	eeb7 4a00 	vmov.f32	s8, #112	@ 0x3f800000  1.0
10003558:	eef7 4a00 	vmov.f32	s9, #112	@ 0x3f800000  1.0
1000355c:	eeb7 5a00 	vmov.f32	s10, #112	@ 0x3f800000  1.0
10003560:	eef7 5a00 	vmov.f32	s11, #112	@ 0x3f800000  1.0
10003564:	eeb7 6a00 	vmov.f32	s12, #112	@ 0x3f800000  1.0
10003568:	eef7 6a00 	vmov.f32	s13, #112	@ 0x3f800000  1.0
1000356c:	eeb7 7a00 	vmov.f32	s14, #112	@ 0x3f800000  1.0
10003570:	eef7 7a00 	vmov.f32	s15, #112	@ 0x3f800000  1.0
10003574:	f38e 8c00 	msr	CPSR_fs, lr
10003578:	eef1 ca10 	vmrs	ip, fpscr
1000357c:	f64f 7460 	movw	r4, #65376	@ 0xff60
10003580:	f6c0 74ff 	movt	r4, #4095	@ 0xfff
10003584:	ea0c 0c04 	and.w	ip, ip, r4
10003588:	eee1 ca10 	vmsr	fpscr, ip
1000358c:	46f4      	mov	ip, lr
1000358e:	371c      	adds	r7, #28
10003590:	46bd      	mov	sp, r7
10003592:	e8bd 049f 	ldmia.w	sp!, {r0, r1, r2, r3, r4, r7, sl}
10003596:	f03a 0a01 	bics.w	sl, sl, #1
1000359a:	4754      	bxns	sl
1000359c:	f3ef 8c14 	mrs	ip, CONTROL
100035a0:	f01c 0f08 	tst.w	ip, #8
100035a4:	d017      	beq.n	100035d6 <__acle_se_SECURE_log_call+0xca>
100035a6:	eef1 ca10 	vmrs	ip, fpscr
100035aa:	ec4e eb10 	vmov	d0, lr, lr
100035ae:	f02c 0c9f 	bic.w	ip, ip, #159	@ 0x9f
100035b2:	f02c 4c70 	bic.w	ip, ip, #4026531840	@ 0xf0000000
100035b6:	eee1 ca10 	vmsr	fpscr, ip
100035ba:	ec4e eb11 	vmov	d1, lr, lr
100035be:	ec4e eb12 	vmov	d2, lr, lr
100035c2:	ec4e eb13 	vmov	d3, lr, lr
100035c6:	ec4e eb14 	vmov	d4, lr, lr
100035ca:	ec4e eb15 	vmov	d5, lr, lr
100035ce:	ec4e eb16 	vmov	d6, lr, lr
100035d2:	ec4e eb17 	vmov	d7, lr, lr
100035d6:	4670      	mov	r0, lr
100035d8:	4671      	mov	r1, lr
100035da:	4672      	mov	r2, lr
100035dc:	4673      	mov	r3, lr
100035de:	46f4      	mov	ip, lr
100035e0:	f38e 8c00 	msr	CPSR_fs, lr
100035e4:	4774      	bxns	lr
	...

100035e8 <__acle_se_SECURE_log_cond_br_not_taken>:
100035e8:	e92d 109f 	stmdb	sp!, {r0, r1, r2, r3, r4, r7, ip}
100035ec:	b087      	sub	sp, #28
100035ee:	af00      	add	r7, sp, #0
100035f0:	b580      	push	{r7, lr}
100035f2:	b082      	sub	sp, #8
100035f4:	af00      	add	r7, sp, #0
100035f6:	4670      	mov	r0, lr
100035f8:	f1a0 0004 	sub.w	r0, r0, #4
100035fc:	f7fd fe56 	bl	100012ac <CFA_ENGINE_new_log_entry>
10003600:	bf00      	nop
10003602:	3708      	adds	r7, #8
10003604:	46bd      	mov	sp, r7
10003606:	e8bd 4080 	ldmia.w	sp!, {r7, lr}
1000360a:	4670      	mov	r0, lr
1000360c:	4671      	mov	r1, lr
1000360e:	4672      	mov	r2, lr
10003610:	4673      	mov	r3, lr
10003612:	eeb7 0a00 	vmov.f32	s0, #112	@ 0x3f800000  1.0
10003616:	eef7 0a00 	vmov.f32	s1, #112	@ 0x3f800000  1.0
1000361a:	eeb7 1a00 	vmov.f32	s2, #112	@ 0x3f800000  1.0
1000361e:	eef7 1a00 	vmov.f32	s3, #112	@ 0x3f800000  1.0
10003622:	eeb7 2a00 	vmov.f32	s4, #112	@ 0x3f800000  1.0
10003626:	eef7 2a00 	vmov.f32	s5, #112	@ 0x3f800000  1.0
1000362a:	eeb7 3a00 	vmov.f32	s6, #112	@ 0x3f800000  1.0
1000362e:	eef7 3a00 	vmov.f32	s7, #112	@ 0x3f800000  1.0
10003632:	eeb7 4a00 	vmov.f32	s8, #112	@ 0x3f800000  1.0
10003636:	eef7 4a00 	vmov.f32	s9, #112	@ 0x3f800000  1.0
1000363a:	eeb7 5a00 	vmov.f32	s10, #112	@ 0x3f800000  1.0
1000363e:	eef7 5a00 	vmov.f32	s11, #112	@ 0x3f800000  1.0
10003642:	eeb7 6a00 	vmov.f32	s12, #112	@ 0x3f800000  1.0
10003646:	eef7 6a00 	vmov.f32	s13, #112	@ 0x3f800000  1.0
1000364a:	eeb7 7a00 	vmov.f32	s14, #112	@ 0x3f800000  1.0
1000364e:	eef7 7a00 	vmov.f32	s15, #112	@ 0x3f800000  1.0
10003652:	f38e 8c00 	msr	CPSR_fs, lr
10003656:	b410      	push	{r4}
10003658:	eef1 ca10 	vmrs	ip, fpscr
1000365c:	f64f 7460 	movw	r4, #65376	@ 0xff60
10003660:	f6c0 74ff 	movt	r4, #4095	@ 0xfff
10003664:	ea0c 0c04 	and.w	ip, ip, r4
10003668:	eee1 ca10 	vmsr	fpscr, ip
1000366c:	bc10      	pop	{r4}
1000366e:	46f4      	mov	ip, lr
10003670:	371c      	adds	r7, #28
10003672:	46bd      	mov	sp, r7
10003674:	e8bd 109f 	ldmia.w	sp!, {r0, r1, r2, r3, r4, r7, ip}
10003678:	f03e 0e01 	bics.w	lr, lr, #1
1000367c:	4774      	bxns	lr
1000367e:	f3ef 8c14 	mrs	ip, CONTROL
10003682:	f01c 0f08 	tst.w	ip, #8
10003686:	d017      	beq.n	100036b8 <__acle_se_SECURE_log_cond_br_not_taken+0xd0>
10003688:	eef1 ca10 	vmrs	ip, fpscr
1000368c:	ec4e eb10 	vmov	d0, lr, lr
10003690:	f02c 0c9f 	bic.w	ip, ip, #159	@ 0x9f
10003694:	f02c 4c70 	bic.w	ip, ip, #4026531840	@ 0xf0000000
10003698:	eee1 ca10 	vmsr	fpscr, ip
1000369c:	ec4e eb11 	vmov	d1, lr, lr
100036a0:	ec4e eb12 	vmov	d2, lr, lr
100036a4:	ec4e eb13 	vmov	d3, lr, lr
100036a8:	ec4e eb14 	vmov	d4, lr, lr
100036ac:	ec4e eb15 	vmov	d5, lr, lr
100036b0:	ec4e eb16 	vmov	d6, lr, lr
100036b4:	ec4e eb17 	vmov	d7, lr, lr
100036b8:	4670      	mov	r0, lr
100036ba:	4671      	mov	r1, lr
100036bc:	4672      	mov	r2, lr
100036be:	4673      	mov	r3, lr
100036c0:	46f4      	mov	ip, lr
100036c2:	f38e 8c00 	msr	CPSR_fs, lr
100036c6:	4774      	bxns	lr

100036c8 <__acle_se_SECURE_log_cond_br_taken>:
100036c8:	e92d 109f 	stmdb	sp!, {r0, r1, r2, r3, r4, r7, ip}
100036cc:	b087      	sub	sp, #28
100036ce:	af00      	add	r7, sp, #0
100036d0:	b580      	push	{r7, lr}
100036d2:	b082      	sub	sp, #8
100036d4:	af00      	add	r7, sp, #0
100036d6:	4670      	mov	r0, lr
100036d8:	f1a0 0004 	sub.w	r0, r0, #4
100036dc:	f7fd fde6 	bl	100012ac <CFA_ENGINE_new_log_entry>
100036e0:	bf00      	nop
100036e2:	3708      	adds	r7, #8
100036e4:	46bd      	mov	sp, r7
100036e6:	e8bd 4080 	ldmia.w	sp!, {r7, lr}
100036ea:	4670      	mov	r0, lr
100036ec:	4671      	mov	r1, lr
100036ee:	4672      	mov	r2, lr
100036f0:	4673      	mov	r3, lr
100036f2:	eeb7 0a00 	vmov.f32	s0, #112	@ 0x3f800000  1.0
100036f6:	eef7 0a00 	vmov.f32	s1, #112	@ 0x3f800000  1.0
100036fa:	eeb7 1a00 	vmov.f32	s2, #112	@ 0x3f800000  1.0
100036fe:	eef7 1a00 	vmov.f32	s3, #112	@ 0x3f800000  1.0
10003702:	eeb7 2a00 	vmov.f32	s4, #112	@ 0x3f800000  1.0
10003706:	eef7 2a00 	vmov.f32	s5, #112	@ 0x3f800000  1.0
1000370a:	eeb7 3a00 	vmov.f32	s6, #112	@ 0x3f800000  1.0
1000370e:	eef7 3a00 	vmov.f32	s7, #112	@ 0x3f800000  1.0
10003712:	eeb7 4a00 	vmov.f32	s8, #112	@ 0x3f800000  1.0
10003716:	eef7 4a00 	vmov.f32	s9, #112	@ 0x3f800000  1.0
1000371a:	eeb7 5a00 	vmov.f32	s10, #112	@ 0x3f800000  1.0
1000371e:	eef7 5a00 	vmov.f32	s11, #112	@ 0x3f800000  1.0
10003722:	eeb7 6a00 	vmov.f32	s12, #112	@ 0x3f800000  1.0
10003726:	eef7 6a00 	vmov.f32	s13, #112	@ 0x3f800000  1.0
1000372a:	eeb7 7a00 	vmov.f32	s14, #112	@ 0x3f800000  1.0
1000372e:	eef7 7a00 	vmov.f32	s15, #112	@ 0x3f800000  1.0
10003732:	f38e 8c00 	msr	CPSR_fs, lr
10003736:	b410      	push	{r4}
10003738:	eef1 ca10 	vmrs	ip, fpscr
1000373c:	f64f 7460 	movw	r4, #65376	@ 0xff60
10003740:	f6c0 74ff 	movt	r4, #4095	@ 0xfff
10003744:	ea0c 0c04 	and.w	ip, ip, r4
10003748:	eee1 ca10 	vmsr	fpscr, ip
1000374c:	bc10      	pop	{r4}
1000374e:	46f4      	mov	ip, lr
10003750:	371c      	adds	r7, #28
10003752:	46bd      	mov	sp, r7
10003754:	e8bd 109f 	ldmia.w	sp!, {r0, r1, r2, r3, r4, r7, ip}
10003758:	f03e 0e01 	bics.w	lr, lr, #1
1000375c:	4774      	bxns	lr
1000375e:	f3ef 8c14 	mrs	ip, CONTROL
10003762:	f01c 0f08 	tst.w	ip, #8
10003766:	d017      	beq.n	10003798 <__acle_se_SECURE_log_cond_br_taken+0xd0>
10003768:	eef1 ca10 	vmrs	ip, fpscr
1000376c:	ec4e eb10 	vmov	d0, lr, lr
10003770:	f02c 0c9f 	bic.w	ip, ip, #159	@ 0x9f
10003774:	f02c 4c70 	bic.w	ip, ip, #4026531840	@ 0xf0000000
10003778:	eee1 ca10 	vmsr	fpscr, ip
1000377c:	ec4e eb11 	vmov	d1, lr, lr
10003780:	ec4e eb12 	vmov	d2, lr, lr
10003784:	ec4e eb13 	vmov	d3, lr, lr
10003788:	ec4e eb14 	vmov	d4, lr, lr
1000378c:	ec4e eb15 	vmov	d5, lr, lr
10003790:	ec4e eb16 	vmov	d6, lr, lr
10003794:	ec4e eb17 	vmov	d7, lr, lr
10003798:	4670      	mov	r0, lr
1000379a:	4671      	mov	r1, lr
1000379c:	4672      	mov	r2, lr
1000379e:	4673      	mov	r3, lr
100037a0:	46f4      	mov	ip, lr
100037a2:	f38e 8c00 	msr	CPSR_fs, lr
100037a6:	4774      	bxns	lr

100037a8 <__acle_se_SECURE_log_loop_cond>:
100037a8:	e92d 109f 	stmdb	sp!, {r0, r1, r2, r3, r4, r7, ip}
100037ac:	b087      	sub	sp, #28
100037ae:	af00      	add	r7, sp, #0
100037b0:	4774      	bxns	lr
100037b2:	f3ef 8c14 	mrs	ip, CONTROL
100037b6:	f01c 0f08 	tst.w	ip, #8
100037ba:	d017      	beq.n	100037ec <__acle_se_SECURE_log_loop_cond+0x44>
100037bc:	eef1 ca10 	vmrs	ip, fpscr
100037c0:	ec4e eb10 	vmov	d0, lr, lr
100037c4:	f02c 0c9f 	bic.w	ip, ip, #159	@ 0x9f
100037c8:	f02c 4c70 	bic.w	ip, ip, #4026531840	@ 0xf0000000
100037cc:	eee1 ca10 	vmsr	fpscr, ip
100037d0:	ec4e eb11 	vmov	d1, lr, lr
100037d4:	ec4e eb12 	vmov	d2, lr, lr
100037d8:	ec4e eb13 	vmov	d3, lr, lr
100037dc:	ec4e eb14 	vmov	d4, lr, lr
100037e0:	ec4e eb15 	vmov	d5, lr, lr
100037e4:	ec4e eb16 	vmov	d6, lr, lr
100037e8:	ec4e eb17 	vmov	d7, lr, lr
100037ec:	4670      	mov	r0, lr
100037ee:	4671      	mov	r1, lr
100037f0:	4672      	mov	r2, lr
100037f2:	4673      	mov	r3, lr
100037f4:	46f4      	mov	ip, lr
100037f6:	f38e 8c00 	msr	CPSR_fs, lr
100037fa:	4774      	bxns	lr

100037fc <__acle_se_SECURE_log_ret>:
100037fc:	e92d 109f 	stmdb	sp!, {r0, r1, r2, r3, r4, r7, ip}
10003800:	b087      	sub	sp, #28
10003802:	af00      	add	r7, sp, #0
10003804:	b580      	push	{r7, lr}
10003806:	b082      	sub	sp, #8
10003808:	af00      	add	r7, sp, #0
1000380a:	4670      	mov	r0, lr
1000380c:	f7fd fd4e 	bl	100012ac <CFA_ENGINE_new_log_entry>
10003810:	bf00      	nop
10003812:	3708      	adds	r7, #8
10003814:	46bd      	mov	sp, r7
10003816:	e8bd 4080 	ldmia.w	sp!, {r7, lr}
1000381a:	4670      	mov	r0, lr
1000381c:	4671      	mov	r1, lr
1000381e:	4672      	mov	r2, lr
10003820:	4673      	mov	r3, lr
10003822:	eeb7 0a00 	vmov.f32	s0, #112	@ 0x3f800000  1.0
10003826:	eef7 0a00 	vmov.f32	s1, #112	@ 0x3f800000  1.0
1000382a:	eeb7 1a00 	vmov.f32	s2, #112	@ 0x3f800000  1.0
1000382e:	eef7 1a00 	vmov.f32	s3, #112	@ 0x3f800000  1.0
10003832:	eeb7 2a00 	vmov.f32	s4, #112	@ 0x3f800000  1.0
10003836:	eef7 2a00 	vmov.f32	s5, #112	@ 0x3f800000  1.0
1000383a:	eeb7 3a00 	vmov.f32	s6, #112	@ 0x3f800000  1.0
1000383e:	eef7 3a00 	vmov.f32	s7, #112	@ 0x3f800000  1.0
10003842:	eeb7 4a00 	vmov.f32	s8, #112	@ 0x3f800000  1.0
10003846:	eef7 4a00 	vmov.f32	s9, #112	@ 0x3f800000  1.0
1000384a:	eeb7 5a00 	vmov.f32	s10, #112	@ 0x3f800000  1.0
1000384e:	eef7 5a00 	vmov.f32	s11, #112	@ 0x3f800000  1.0
10003852:	eeb7 6a00 	vmov.f32	s12, #112	@ 0x3f800000  1.0
10003856:	eef7 6a00 	vmov.f32	s13, #112	@ 0x3f800000  1.0
1000385a:	eeb7 7a00 	vmov.f32	s14, #112	@ 0x3f800000  1.0
1000385e:	eef7 7a00 	vmov.f32	s15, #112	@ 0x3f800000  1.0
10003862:	f38e 8c00 	msr	CPSR_fs, lr
10003866:	b410      	push	{r4}
10003868:	eef1 ca10 	vmrs	ip, fpscr
1000386c:	f64f 7460 	movw	r4, #65376	@ 0xff60
10003870:	f6c0 74ff 	movt	r4, #4095	@ 0xfff
10003874:	ea0c 0c04 	and.w	ip, ip, r4
10003878:	eee1 ca10 	vmsr	fpscr, ip
1000387c:	bc10      	pop	{r4}
1000387e:	46f4      	mov	ip, lr
10003880:	371c      	adds	r7, #28
10003882:	46bd      	mov	sp, r7
10003884:	e8bd 109f 	ldmia.w	sp!, {r0, r1, r2, r3, r4, r7, ip}
10003888:	f03e 0e01 	bics.w	lr, lr, #1
1000388c:	4774      	bxns	lr
1000388e:	f3ef 8c14 	mrs	ip, CONTROL
10003892:	f01c 0f08 	tst.w	ip, #8
10003896:	d017      	beq.n	100038c8 <__acle_se_SECURE_log_ret+0xcc>
10003898:	eef1 ca10 	vmrs	ip, fpscr
1000389c:	ec4e eb10 	vmov	d0, lr, lr
100038a0:	f02c 0c9f 	bic.w	ip, ip, #159	@ 0x9f
100038a4:	f02c 4c70 	bic.w	ip, ip, #4026531840	@ 0xf0000000
100038a8:	eee1 ca10 	vmsr	fpscr, ip
100038ac:	ec4e eb11 	vmov	d1, lr, lr
100038b0:	ec4e eb12 	vmov	d2, lr, lr
100038b4:	ec4e eb13 	vmov	d3, lr, lr
100038b8:	ec4e eb14 	vmov	d4, lr, lr
100038bc:	ec4e eb15 	vmov	d5, lr, lr
100038c0:	ec4e eb16 	vmov	d6, lr, lr
100038c4:	ec4e eb17 	vmov	d7, lr, lr
100038c8:	4670      	mov	r0, lr
100038ca:	4671      	mov	r1, lr
100038cc:	4672      	mov	r2, lr
100038ce:	4673      	mov	r3, lr
100038d0:	46f4      	mov	ip, lr
100038d2:	f38e 8c00 	msr	CPSR_fs, lr
100038d6:	4774      	bxns	lr

100038d8 <__acle_se_SECURE_register_callback>:
100038d8:	b510      	push	{r4, lr}
100038da:	4604      	mov	r4, r0
100038dc:	a018      	add	r0, pc, #96	@ (adr r0, 10003940 <__acle_se_SECURE_register_callback+0x68>)
100038de:	f7fc fedf 	bl	100006a0 <puts>
100038e2:	f240 10b8 	movw	r0, #440	@ 0x1b8
100038e6:	f6c3 0000 	movt	r0, #14336	@ 0x3800
100038ea:	6004      	str	r4, [r0, #0]
100038ec:	a01e      	add	r0, pc, #120	@ (adr r0, 10003968 <__acle_se_SECURE_register_callback+0x90>)
100038ee:	f7fc fed7 	bl	100006a0 <puts>
100038f2:	e8bd 4010 	ldmia.w	sp!, {r4, lr}
100038f6:	f3ef 8c14 	mrs	ip, CONTROL
100038fa:	f01c 0f08 	tst.w	ip, #8
100038fe:	d017      	beq.n	10003930 <__acle_se_SECURE_register_callback+0x58>
10003900:	eef1 ca10 	vmrs	ip, fpscr
10003904:	ec4e eb10 	vmov	d0, lr, lr
10003908:	f02c 0c9f 	bic.w	ip, ip, #159	@ 0x9f
1000390c:	f02c 4c70 	bic.w	ip, ip, #4026531840	@ 0xf0000000
10003910:	eee1 ca10 	vmsr	fpscr, ip
10003914:	ec4e eb11 	vmov	d1, lr, lr
10003918:	ec4e eb12 	vmov	d2, lr, lr
1000391c:	ec4e eb13 	vmov	d3, lr, lr
10003920:	ec4e eb14 	vmov	d4, lr, lr
10003924:	ec4e eb15 	vmov	d5, lr, lr
10003928:	ec4e eb16 	vmov	d6, lr, lr
1000392c:	ec4e eb17 	vmov	d7, lr, lr
10003930:	4670      	mov	r0, lr
10003932:	4671      	mov	r1, lr
10003934:	4672      	mov	r2, lr
10003936:	4673      	mov	r3, lr
10003938:	46f4      	mov	ip, lr
1000393a:	f38e 8c00 	msr	CPSR_fs, lr
1000393e:	4774      	bxns	lr
10003940:	474f4c5b 	.word	0x474f4c5b
10003944:	6e45205d 	.word	0x6e45205d
10003948:	65726574 	.word	0x65726574
1000394c:	65532064 	.word	0x65532064
10003950:	65727563 	.word	0x65727563
10003954:	67657220 	.word	0x67657220
10003958:	65747369 	.word	0x65747369
1000395c:	61635f72 	.word	0x61635f72
10003960:	61626c6c 	.word	0x61626c6c
10003964:	00006b63 	.word	0x00006b63
10003968:	474f4c5b 	.word	0x474f4c5b
1000396c:	6143205d 	.word	0x6143205d
10003970:	61626c6c 	.word	0x61626c6c
10003974:	66206b63 	.word	0x66206b63
10003978:	74636e75 	.word	0x74636e75
1000397c:	206e6f69 	.word	0x206e6f69
10003980:	69676572 	.word	0x69676572
10003984:	72657473 	.word	0x72657473
10003988:	00006465 	.word	0x00006465

1000398c <__acle_se_SECURE_start_cfa>:
1000398c:	b5b0      	push	{r4, r5, r7, lr}
1000398e:	4604      	mov	r4, r0
10003990:	a029      	add	r0, pc, #164	@ (adr r0, 10003a38 <__acle_se_SECURE_start_cfa+0xac>)
10003992:	f7fc fe85 	bl	100006a0 <puts>
10003996:	f240 10b8 	movw	r0, #440	@ 0x1b8
1000399a:	b672      	cpsid	i
1000399c:	f6c3 0000 	movt	r0, #14336	@ 0x3800
100039a0:	6800      	ldr	r0, [r0, #0]
100039a2:	b160      	cbz	r0, 100039be <__acle_se_SECURE_start_cfa+0x32>
100039a4:	b662      	cpsie	i
100039a6:	f240 1584 	movw	r5, #388	@ 0x184
100039aa:	b672      	cpsid	i
100039ac:	f6c3 0500 	movt	r5, #14336	@ 0x3800
100039b0:	6828      	ldr	r0, [r5, #0]
100039b2:	2801      	cmp	r0, #1
100039b4:	d10a      	bne.n	100039cc <__acle_se_SECURE_start_cfa+0x40>
100039b6:	b662      	cpsie	i
100039b8:	2801      	cmp	r0, #1
100039ba:	d10c      	bne.n	100039d6 <__acle_se_SECURE_start_cfa+0x4a>
100039bc:	e015      	b.n	100039ea <__acle_se_SECURE_start_cfa+0x5e>
100039be:	a02d      	add	r0, pc, #180	@ (adr r0, 10003a74 <__acle_se_SECURE_start_cfa+0xe8>)
100039c0:	f7fc fe6e 	bl	100006a0 <puts>
100039c4:	2064      	movs	r0, #100	@ 0x64
100039c6:	7020      	strb	r0, [r4, #0]
100039c8:	b662      	cpsie	i
100039ca:	e00e      	b.n	100039ea <__acle_se_SECURE_start_cfa+0x5e>
100039cc:	2101      	movs	r1, #1
100039ce:	6029      	str	r1, [r5, #0]
100039d0:	b662      	cpsie	i
100039d2:	2801      	cmp	r0, #1
100039d4:	d009      	beq.n	100039ea <__acle_se_SECURE_start_cfa+0x5e>
100039d6:	a020      	add	r0, pc, #128	@ (adr r0, 10003a58 <__acle_se_SECURE_start_cfa+0xcc>)
100039d8:	f7fc fe62 	bl	100006a0 <puts>
100039dc:	4620      	mov	r0, r4
100039de:	f000 fd67 	bl	100044b0 <eCFA_init_cfa>
100039e2:	2000      	movs	r0, #0
100039e4:	b672      	cpsid	i
100039e6:	6028      	str	r0, [r5, #0]
100039e8:	b662      	cpsie	i
100039ea:	e8bd 40b0 	ldmia.w	sp!, {r4, r5, r7, lr}
100039ee:	f3ef 8c14 	mrs	ip, CONTROL
100039f2:	f01c 0f08 	tst.w	ip, #8
100039f6:	d017      	beq.n	10003a28 <__acle_se_SECURE_start_cfa+0x9c>
100039f8:	eef1 ca10 	vmrs	ip, fpscr
100039fc:	ec4e eb10 	vmov	d0, lr, lr
10003a00:	f02c 0c9f 	bic.w	ip, ip, #159	@ 0x9f
10003a04:	f02c 4c70 	bic.w	ip, ip, #4026531840	@ 0xf0000000
10003a08:	eee1 ca10 	vmsr	fpscr, ip
10003a0c:	ec4e eb11 	vmov	d1, lr, lr
10003a10:	ec4e eb12 	vmov	d2, lr, lr
10003a14:	ec4e eb13 	vmov	d3, lr, lr
10003a18:	ec4e eb14 	vmov	d4, lr, lr
10003a1c:	ec4e eb15 	vmov	d5, lr, lr
10003a20:	ec4e eb16 	vmov	d6, lr, lr
10003a24:	ec4e eb17 	vmov	d7, lr, lr
10003a28:	4670      	mov	r0, lr
10003a2a:	4671      	mov	r1, lr
10003a2c:	4672      	mov	r2, lr
10003a2e:	4673      	mov	r3, lr
10003a30:	46f4      	mov	ip, lr
10003a32:	f38e 8c00 	msr	CPSR_fs, lr
10003a36:	4774      	bxns	lr
10003a38:	474f4c5b 	.word	0x474f4c5b
10003a3c:	6e45205d 	.word	0x6e45205d
10003a40:	65726574 	.word	0x65726574
10003a44:	65532064 	.word	0x65532064
10003a48:	65727563 	.word	0x65727563
10003a4c:	61747320 	.word	0x61747320
10003a50:	635f7472 	.word	0x635f7472
10003a54:	00006166 	.word	0x00006166
10003a58:	474f4c5b 	.word	0x474f4c5b
10003a5c:	4643205d 	.word	0x4643205d
10003a60:	6e692041 	.word	0x6e692041
10003a64:	61697469 	.word	0x61697469
10003a68:	617a696c 	.word	0x617a696c
10003a6c:	6e6f6974 	.word	0x6e6f6974
10003a70:	00000000 	.word	0x00000000
10003a74:	5252455b 	.word	0x5252455b
10003a78:	205d524f 	.word	0x205d524f
10003a7c:	6c6c6143 	.word	0x6c6c6143
10003a80:	6b636162 	.word	0x6b636162
10003a84:	6e756620 	.word	0x6e756620
10003a88:	6f697463 	.word	0x6f697463
10003a8c:	6f6e206e 	.word	0x6f6e206e
10003a90:	65642074 	.word	0x65642074
10003a94:	656e6966 	.word	0x656e6966
10003a98:	00000064 	.word	0x00000064

10003a9c <__acle_se_Secure_LED_Off>:
10003a9c:	b580      	push	{r7, lr}
10003a9e:	f7ff fcd7 	bl	10003450 <LED_Off>
10003aa2:	e8bd 4080 	ldmia.w	sp!, {r7, lr}
10003aa6:	f3ef 8c14 	mrs	ip, CONTROL
10003aaa:	f01c 0f08 	tst.w	ip, #8
10003aae:	d017      	beq.n	10003ae0 <__acle_se_Secure_LED_Off+0x44>
10003ab0:	eef1 ca10 	vmrs	ip, fpscr
10003ab4:	ec4e eb10 	vmov	d0, lr, lr
10003ab8:	f02c 0c9f 	bic.w	ip, ip, #159	@ 0x9f
10003abc:	f02c 4c70 	bic.w	ip, ip, #4026531840	@ 0xf0000000
10003ac0:	eee1 ca10 	vmsr	fpscr, ip
10003ac4:	ec4e eb11 	vmov	d1, lr, lr
10003ac8:	ec4e eb12 	vmov	d2, lr, lr
10003acc:	ec4e eb13 	vmov	d3, lr, lr
10003ad0:	ec4e eb14 	vmov	d4, lr, lr
10003ad4:	ec4e eb15 	vmov	d5, lr, lr
10003ad8:	ec4e eb16 	vmov	d6, lr, lr
10003adc:	ec4e eb17 	vmov	d7, lr, lr
10003ae0:	4671      	mov	r1, lr
10003ae2:	4672      	mov	r2, lr
10003ae4:	4673      	mov	r3, lr
10003ae6:	46f4      	mov	ip, lr
10003ae8:	f38e 8c00 	msr	CPSR_fs, lr
10003aec:	4774      	bxns	lr
	...

10003af0 <__acle_se_Secure_LED_Off_callback>:
10003af0:	f240 12cc 	movw	r2, #460	@ 0x1cc
10003af4:	4601      	mov	r1, r0
10003af6:	f6c3 0200 	movt	r2, #14336	@ 0x3800
10003afa:	6011      	str	r1, [r2, #0]
10003afc:	f3ef 8c14 	mrs	ip, CONTROL
10003b00:	2000      	movs	r0, #0
10003b02:	f01c 0f08 	tst.w	ip, #8
10003b06:	d017      	beq.n	10003b38 <__acle_se_Secure_LED_Off_callback+0x48>
10003b08:	eef1 ca10 	vmrs	ip, fpscr
10003b0c:	ec4e eb10 	vmov	d0, lr, lr
10003b10:	f02c 0c9f 	bic.w	ip, ip, #159	@ 0x9f
10003b14:	f02c 4c70 	bic.w	ip, ip, #4026531840	@ 0xf0000000
10003b18:	eee1 ca10 	vmsr	fpscr, ip
10003b1c:	ec4e eb11 	vmov	d1, lr, lr
10003b20:	ec4e eb12 	vmov	d2, lr, lr
10003b24:	ec4e eb13 	vmov	d3, lr, lr
10003b28:	ec4e eb14 	vmov	d4, lr, lr
10003b2c:	ec4e eb15 	vmov	d5, lr, lr
10003b30:	ec4e eb16 	vmov	d6, lr, lr
10003b34:	ec4e eb17 	vmov	d7, lr, lr
10003b38:	4671      	mov	r1, lr
10003b3a:	4672      	mov	r2, lr
10003b3c:	4673      	mov	r3, lr
10003b3e:	46f4      	mov	ip, lr
10003b40:	f38e 8c00 	msr	CPSR_fs, lr
10003b44:	4774      	bxns	lr
	...

10003b48 <__acle_se_Secure_LED_On>:
10003b48:	b580      	push	{r7, lr}
10003b4a:	f7ff fc8f 	bl	1000346c <LED_On>
10003b4e:	e8bd 4080 	ldmia.w	sp!, {r7, lr}
10003b52:	f3ef 8c14 	mrs	ip, CONTROL
10003b56:	f01c 0f08 	tst.w	ip, #8
10003b5a:	d017      	beq.n	10003b8c <__acle_se_Secure_LED_On+0x44>
10003b5c:	eef1 ca10 	vmrs	ip, fpscr
10003b60:	ec4e eb10 	vmov	d0, lr, lr
10003b64:	f02c 0c9f 	bic.w	ip, ip, #159	@ 0x9f
10003b68:	f02c 4c70 	bic.w	ip, ip, #4026531840	@ 0xf0000000
10003b6c:	eee1 ca10 	vmsr	fpscr, ip
10003b70:	ec4e eb11 	vmov	d1, lr, lr
10003b74:	ec4e eb12 	vmov	d2, lr, lr
10003b78:	ec4e eb13 	vmov	d3, lr, lr
10003b7c:	ec4e eb14 	vmov	d4, lr, lr
10003b80:	ec4e eb15 	vmov	d5, lr, lr
10003b84:	ec4e eb16 	vmov	d6, lr, lr
10003b88:	ec4e eb17 	vmov	d7, lr, lr
10003b8c:	4671      	mov	r1, lr
10003b8e:	4672      	mov	r2, lr
10003b90:	4673      	mov	r3, lr
10003b92:	46f4      	mov	ip, lr
10003b94:	f38e 8c00 	msr	CPSR_fs, lr
10003b98:	4774      	bxns	lr
	...

10003b9c <__acle_se_Secure_LED_On_callback>:
10003b9c:	f240 12d0 	movw	r2, #464	@ 0x1d0
10003ba0:	4601      	mov	r1, r0
10003ba2:	f6c3 0200 	movt	r2, #14336	@ 0x3800
10003ba6:	6011      	str	r1, [r2, #0]
10003ba8:	f3ef 8c14 	mrs	ip, CONTROL
10003bac:	2000      	movs	r0, #0
10003bae:	f01c 0f08 	tst.w	ip, #8
10003bb2:	d017      	beq.n	10003be4 <__acle_se_Secure_LED_On_callback+0x48>
10003bb4:	eef1 ca10 	vmrs	ip, fpscr
10003bb8:	ec4e eb10 	vmov	d0, lr, lr
10003bbc:	f02c 0c9f 	bic.w	ip, ip, #159	@ 0x9f
10003bc0:	f02c 4c70 	bic.w	ip, ip, #4026531840	@ 0xf0000000
10003bc4:	eee1 ca10 	vmsr	fpscr, ip
10003bc8:	ec4e eb11 	vmov	d1, lr, lr
10003bcc:	ec4e eb12 	vmov	d2, lr, lr
10003bd0:	ec4e eb13 	vmov	d3, lr, lr
10003bd4:	ec4e eb14 	vmov	d4, lr, lr
10003bd8:	ec4e eb15 	vmov	d5, lr, lr
10003bdc:	ec4e eb16 	vmov	d6, lr, lr
10003be0:	ec4e eb17 	vmov	d7, lr, lr
10003be4:	4671      	mov	r1, lr
10003be6:	4672      	mov	r2, lr
10003be8:	4673      	mov	r3, lr
10003bea:	46f4      	mov	ip, lr
10003bec:	f38e 8c00 	msr	CPSR_fs, lr
10003bf0:	4774      	bxns	lr
	...

10003bf4 <__acle_se_Secure_printf>:
10003bf4:	b580      	push	{r7, lr}
10003bf6:	4601      	mov	r1, r0
10003bf8:	a014      	add	r0, pc, #80	@ (adr r0, 10003c4c <__acle_se_Secure_printf+0x58>)
10003bfa:	f7fc fc7f 	bl	100004fc <__2printf>
10003bfe:	e8bd 4080 	ldmia.w	sp!, {r7, lr}
10003c02:	f3ef 8c14 	mrs	ip, CONTROL
10003c06:	f01c 0f08 	tst.w	ip, #8
10003c0a:	d017      	beq.n	10003c3c <__acle_se_Secure_printf+0x48>
10003c0c:	eef1 ca10 	vmrs	ip, fpscr
10003c10:	ec4e eb10 	vmov	d0, lr, lr
10003c14:	f02c 0c9f 	bic.w	ip, ip, #159	@ 0x9f
10003c18:	f02c 4c70 	bic.w	ip, ip, #4026531840	@ 0xf0000000
10003c1c:	eee1 ca10 	vmsr	fpscr, ip
10003c20:	ec4e eb11 	vmov	d1, lr, lr
10003c24:	ec4e eb12 	vmov	d2, lr, lr
10003c28:	ec4e eb13 	vmov	d3, lr, lr
10003c2c:	ec4e eb14 	vmov	d4, lr, lr
10003c30:	ec4e eb15 	vmov	d5, lr, lr
10003c34:	ec4e eb16 	vmov	d6, lr, lr
10003c38:	ec4e eb17 	vmov	d7, lr, lr
10003c3c:	4670      	mov	r0, lr
10003c3e:	4671      	mov	r1, lr
10003c40:	4672      	mov	r2, lr
10003c42:	4673      	mov	r3, lr
10003c44:	46f4      	mov	ip, lr
10003c46:	f38e 8c00 	msr	CPSR_fs, lr
10003c4a:	4774      	bxns	lr
10003c4c:	00007325 	.word	0x00007325

10003c50 <SysTick_Handler>:
10003c50:	f240 1088 	movw	r0, #392	@ 0x188
10003c54:	f6c3 0000 	movt	r0, #14336	@ 0x3800
10003c58:	6801      	ldr	r1, [r0, #0]
10003c5a:	3101      	adds	r1, #1
10003c5c:	6001      	str	r1, [r0, #0]
10003c5e:	4770      	bx	lr

10003c60 <SystemCoreClockUpdate>:
10003c60:	f240 001c 	movw	r0, #28
10003c64:	f647 0140 	movw	r1, #30784	@ 0x7840
10003c68:	f6c3 0000 	movt	r0, #14336	@ 0x3800
10003c6c:	f2c0 117d 	movt	r1, #381	@ 0x17d
10003c70:	6001      	str	r1, [r0, #0]
10003c72:	4770      	bx	lr

10003c74 <SystemInit>:
10003c74:	f240 0100 	movw	r1, #0
10003c78:	f64e 50d8 	movw	r0, #60888	@ 0xedd8
10003c7c:	f2c1 0100 	movt	r1, #4096	@ 0x1000
10003c80:	f2ce 0000 	movt	r0, #57344	@ 0xe000
10003c84:	f840 1cd0 	str.w	r1, [r0, #-208]
10003c88:	f850 1c50 	ldr.w	r1, [r0, #-80]
10003c8c:	2300      	movs	r3, #0
10003c8e:	f441 0170 	orr.w	r1, r1, #15728640	@ 0xf00000
10003c92:	f840 1c50 	str.w	r1, [r0, #-80]
10003c96:	f850 1cb4 	ldr.w	r1, [r0, #-180]
10003c9a:	f04f 0c00 	mov.w	ip, #0
10003c9e:	f441 2170 	orr.w	r1, r1, #983040	@ 0xf0000
10003ca2:	f840 1cb4 	str.w	r1, [r0, #-180]
10003ca6:	f850 1cb0 	ldr.w	r1, [r0, #-176]
10003caa:	f6cf 73ff 	movt	r3, #65535	@ 0xffff
10003cae:	f441 7100 	orr.w	r1, r1, #512	@ 0x200
10003cb2:	f840 1cb0 	str.w	r1, [r0, #-176]
10003cb6:	f247 0100 	movw	r1, #28672	@ 0x7000
10003cba:	f6c5 0100 	movt	r1, #22528	@ 0x5800
10003cbe:	680a      	ldr	r2, [r1, #0]
10003cc0:	f422 7280 	bic.w	r2, r2, #256	@ 0x100
10003cc4:	600a      	str	r2, [r1, #0]
10003cc6:	f8c1 c018 	str.w	ip, [r1, #24]
10003cca:	61cb      	str	r3, [r1, #28]
10003ccc:	f249 0300 	movw	r3, #36864	@ 0x9000
10003cd0:	f6c5 0300 	movt	r3, #22528	@ 0x5800
10003cd4:	6819      	ldr	r1, [r3, #0]
10003cd6:	f04f 32ff 	mov.w	r2, #4294967295
10003cda:	f421 7180 	bic.w	r1, r1, #256	@ 0x100
10003cde:	6019      	str	r1, [r3, #0]
10003ce0:	2101      	movs	r1, #1
10003ce2:	6199      	str	r1, [r3, #24]
10003ce4:	61da      	str	r2, [r3, #28]
10003ce6:	2214      	movs	r2, #20
10003ce8:	f2c5 0208 	movt	r2, #20488	@ 0x5008
10003cec:	6813      	ldr	r3, [r2, #0]
10003cee:	f043 0301 	orr.w	r3, r3, #1
10003cf2:	6013      	str	r3, [r2, #0]
10003cf4:	6f53      	ldr	r3, [r2, #116]	@ 0x74
10003cf6:	f043 0305 	orr.w	r3, r3, #5
10003cfa:	6753      	str	r3, [r2, #116]	@ 0x74
10003cfc:	6f13      	ldr	r3, [r2, #112]	@ 0x70
10003cfe:	f043 0322 	orr.w	r3, r3, #34	@ 0x22
10003d02:	6713      	str	r3, [r2, #112]	@ 0x70
10003d04:	f04f 5280 	mov.w	r2, #268435456	@ 0x10000000
10003d08:	f8c0 c000 	str.w	ip, [r0]
10003d0c:	6042      	str	r2, [r0, #4]
10003d0e:	f64f 72e3 	movw	r2, #65507	@ 0xffe3
10003d12:	f2c1 021f 	movt	r2, #4127	@ 0x101f
10003d16:	6082      	str	r2, [r0, #8]
10003d18:	f44f 1200 	mov.w	r2, #2097152	@ 0x200000
10003d1c:	6001      	str	r1, [r0, #0]
10003d1e:	6042      	str	r2, [r0, #4]
10003d20:	f64f 72e1 	movw	r2, #65505	@ 0xffe1
10003d24:	f2c0 023f 	movt	r2, #63	@ 0x3f
10003d28:	6082      	str	r2, [r0, #8]
10003d2a:	2202      	movs	r2, #2
10003d2c:	6002      	str	r2, [r0, #0]
10003d2e:	2200      	movs	r2, #0
10003d30:	f6c2 0220 	movt	r2, #10272	@ 0x2820
10003d34:	6042      	str	r2, [r0, #4]
10003d36:	f64f 72e1 	movw	r2, #65505	@ 0xffe1
10003d3a:	f6c2 023f 	movt	r2, #10303	@ 0x283f
10003d3e:	2303      	movs	r3, #3
10003d40:	6082      	str	r2, [r0, #8]
10003d42:	6003      	str	r3, [r0, #0]
10003d44:	f04f 4380 	mov.w	r3, #1073741824	@ 0x40000000
10003d48:	f102 52c0 	add.w	r2, r2, #402653184	@ 0x18000000
10003d4c:	6043      	str	r3, [r0, #4]
10003d4e:	6082      	str	r2, [r0, #8]
10003d50:	f840 1c08 	str.w	r1, [r0, #-8]
10003d54:	f850 1cc8 	ldr.w	r1, [r0, #-200]
10003d58:	f649 72f7 	movw	r2, #40951	@ 0x9ff7
10003d5c:	f041 0108 	orr.w	r1, r1, #8
10003d60:	f840 1cc8 	str.w	r1, [r0, #-200]
10003d64:	f850 1ccc 	ldr.w	r1, [r0, #-204]
10003d68:	4011      	ands	r1, r2
10003d6a:	f041 61b8 	orr.w	r1, r1, #96468992	@ 0x5c00000
10003d6e:	f441 1169 	orr.w	r1, r1, #3817472	@ 0x3a4000
10003d72:	f840 1ccc 	str.w	r1, [r0, #-204]
10003d76:	f850 1c4c 	ldr.w	r1, [r0, #-76]
10003d7a:	2204      	movs	r2, #4
10003d7c:	f441 6140 	orr.w	r1, r1, #3072	@ 0xc00
10003d80:	f840 1c4c 	str.w	r1, [r0, #-76]
10003d84:	f8d0 115c 	ldr.w	r1, [r0, #348]	@ 0x15c
10003d88:	f362 619c 	bfi	r1, r2, #26, #3
10003d8c:	f8c0 115c 	str.w	r1, [r0, #348]	@ 0x15c
10003d90:	f240 001c 	movw	r0, #28
10003d94:	f647 0140 	movw	r1, #30784	@ 0x7840
10003d98:	f6c3 0000 	movt	r0, #14336	@ 0x3800
10003d9c:	f2c0 117d 	movt	r1, #381	@ 0x17d
10003da0:	6001      	str	r1, [r0, #0]
10003da2:	4770      	bx	lr

10003da4 <UART0RX_Handler>:
10003da4:	b570      	push	{r4, r5, r6, lr}
10003da6:	2408      	movs	r4, #8
10003da8:	f240 109c 	movw	r0, #412	@ 0x19c
10003dac:	f2c4 0420 	movt	r4, #16416	@ 0x4020
10003db0:	f6c3 0000 	movt	r0, #14336	@ 0x3800
10003db4:	6866      	ldr	r6, [r4, #4]
10003db6:	6881      	ldr	r1, [r0, #8]
10003db8:	b129      	cbz	r1, 10003dc6 <UART0RX_Handler+0x22>
10003dba:	f854 2c08 	ldr.w	r2, [r4, #-8]
10003dbe:	6903      	ldr	r3, [r0, #16]
10003dc0:	1c5d      	adds	r5, r3, #1
10003dc2:	6105      	str	r5, [r0, #16]
10003dc4:	54ca      	strb	r2, [r1, r3]
10003dc6:	6801      	ldr	r1, [r0, #0]
10003dc8:	6902      	ldr	r2, [r0, #16]
10003dca:	428a      	cmp	r2, r1
10003dcc:	d313      	bcc.n	10003df6 <UART0RX_Handler+0x52>
10003dce:	2100      	movs	r1, #0
10003dd0:	6001      	str	r1, [r0, #0]
10003dd2:	f240 1094 	movw	r0, #404	@ 0x194
10003dd6:	f6c3 0000 	movt	r0, #14336	@ 0x3800
10003dda:	7001      	strb	r1, [r0, #0]
10003ddc:	6820      	ldr	r0, [r4, #0]
10003dde:	f020 0008 	bic.w	r0, r0, #8
10003de2:	6020      	str	r0, [r4, #0]
10003de4:	f240 108c 	movw	r0, #396	@ 0x18c
10003de8:	f6c3 0000 	movt	r0, #14336	@ 0x3800
10003dec:	6801      	ldr	r1, [r0, #0]
10003dee:	2900      	cmp	r1, #0
10003df0:	bf1c      	itt	ne
10003df2:	2002      	movne	r0, #2
10003df4:	4788      	blxne	r1
10003df6:	6066      	str	r6, [r4, #4]
10003df8:	bd70      	pop	{r4, r5, r6, pc}
	...

10003dfc <UART0TX_Handler>:
10003dfc:	b5b0      	push	{r4, r5, r7, lr}
10003dfe:	2408      	movs	r4, #8
10003e00:	f240 109c 	movw	r0, #412	@ 0x19c
10003e04:	f2c4 0420 	movt	r4, #16416	@ 0x4020
10003e08:	f6c3 0000 	movt	r0, #14336	@ 0x3800
10003e0c:	6865      	ldr	r5, [r4, #4]
10003e0e:	6842      	ldr	r2, [r0, #4]
10003e10:	b1f2      	cbz	r2, 10003e50 <UART0TX_Handler+0x54>
10003e12:	6941      	ldr	r1, [r0, #20]
10003e14:	3101      	adds	r1, #1
10003e16:	4291      	cmp	r1, r2
10003e18:	6141      	str	r1, [r0, #20]
10003e1a:	d205      	bcs.n	10003e28 <UART0TX_Handler+0x2c>
10003e1c:	68c0      	ldr	r0, [r0, #12]
10003e1e:	5c40      	ldrb	r0, [r0, r1]
10003e20:	f844 0c08 	str.w	r0, [r4, #-8]
10003e24:	6065      	str	r5, [r4, #4]
10003e26:	bdb0      	pop	{r4, r5, r7, pc}
10003e28:	2100      	movs	r1, #0
10003e2a:	6041      	str	r1, [r0, #4]
10003e2c:	f240 1090 	movw	r0, #400	@ 0x190
10003e30:	f6c3 0000 	movt	r0, #14336	@ 0x3800
10003e34:	7001      	strb	r1, [r0, #0]
10003e36:	6820      	ldr	r0, [r4, #0]
10003e38:	f020 0004 	bic.w	r0, r0, #4
10003e3c:	6020      	str	r0, [r4, #0]
10003e3e:	f240 108c 	movw	r0, #396	@ 0x18c
10003e42:	f6c3 0000 	movt	r0, #14336	@ 0x3800
10003e46:	6801      	ldr	r1, [r0, #0]
10003e48:	2900      	cmp	r1, #0
10003e4a:	bf1c      	itt	ne
10003e4c:	2001      	movne	r0, #1
10003e4e:	4788      	blxne	r1
10003e50:	6065      	str	r5, [r4, #4]
10003e52:	bdb0      	pop	{r4, r5, r7, pc}

10003e54 <USART0_Control>:
10003e54:	b510      	push	{r4, lr}
10003e56:	f240 1e98 	movw	lr, #408	@ 0x198
10003e5a:	f6c3 0e00 	movt	lr, #14336	@ 0x3800
10003e5e:	f89e 4000 	ldrb.w	r4, [lr]
10003e62:	07a2      	lsls	r2, r4, #30
10003e64:	bf5c      	itt	pl
10003e66:	f04f 30ff 	movpl.w	r0, #4294967295
10003e6a:	bd10      	poppl	{r4, pc}
10003e6c:	f06f 0214 	mvn.w	r2, #20
10003e70:	fa52 f280 	uxtab	r2, r2, r0
10003e74:	2a05      	cmp	r2, #5
10003e76:	d82e      	bhi.n	10003ed6 <USART0_Control+0x82>
10003e78:	f06f 0003 	mvn.w	r0, #3
10003e7c:	e8df f002 	tbb	[pc, r2]
10003e80:	79030411 	.word	0x79030411
10003e84:	031f      	.short	0x031f
10003e86:	bd10      	pop	{r4, pc}
10003e88:	f044 0010 	orr.w	r0, r4, #16
10003e8c:	f88e 0000 	strb.w	r0, [lr]
10003e90:	2008      	movs	r0, #8
10003e92:	f2c4 0020 	movt	r0, #16416	@ 0x4020
10003e96:	6802      	ldr	r2, [r0, #0]
10003e98:	f001 0101 	and.w	r1, r1, #1
10003e9c:	ea42 0141 	orr.w	r1, r2, r1, lsl #1
10003ea0:	e00a      	b.n	10003eb8 <USART0_Control+0x64>
10003ea2:	f044 0008 	orr.w	r0, r4, #8
10003ea6:	f88e 0000 	strb.w	r0, [lr]
10003eaa:	2008      	movs	r0, #8
10003eac:	f2c4 0020 	movt	r0, #16416	@ 0x4020
10003eb0:	6802      	ldr	r2, [r0, #0]
10003eb2:	f001 0101 	and.w	r1, r1, #1
10003eb6:	4311      	orrs	r1, r2
10003eb8:	6001      	str	r1, [r0, #0]
10003eba:	2000      	movs	r0, #0
10003ebc:	bd10      	pop	{r4, pc}
10003ebe:	2008      	movs	r0, #8
10003ec0:	f2c4 0020 	movt	r0, #16416	@ 0x4020
10003ec4:	6801      	ldr	r1, [r0, #0]
10003ec6:	f021 0108 	bic.w	r1, r1, #8
10003eca:	6001      	str	r1, [r0, #0]
10003ecc:	f240 1194 	movw	r1, #404	@ 0x194
10003ed0:	f6c3 0100 	movt	r1, #14336	@ 0x3800
10003ed4:	e058      	b.n	10003f88 <USART0_Control+0x134>
10003ed6:	4684      	mov	ip, r0
10003ed8:	f240 1090 	movw	r0, #400	@ 0x190
10003edc:	f6c3 0000 	movt	r0, #14336	@ 0x3800
10003ee0:	7800      	ldrb	r0, [r0, #0]
10003ee2:	2800      	cmp	r0, #0
10003ee4:	f06f 0001 	mvn.w	r0, #1
10003ee8:	bf18      	it	ne
10003eea:	bd10      	popne	{r4, pc}
10003eec:	f240 1294 	movw	r2, #404	@ 0x194
10003ef0:	f6c3 0200 	movt	r2, #14336	@ 0x3800
10003ef4:	7812      	ldrb	r2, [r2, #0]
10003ef6:	2a00      	cmp	r2, #0
10003ef8:	d1c5      	bne.n	10003e86 <USART0_Control+0x32>
10003efa:	2008      	movs	r0, #8
10003efc:	f2c4 0020 	movt	r0, #16416	@ 0x4020
10003f00:	f850 2c04 	ldr.w	r2, [r0, #-4]
10003f04:	0792      	lsls	r2, r2, #30
10003f06:	bf1c      	itt	ne
10003f08:	f06f 0001 	mvnne.w	r0, #1
10003f0c:	bd10      	popne	{r4, pc}
10003f0e:	fa5f f28c 	uxtb.w	r2, ip
10003f12:	2a01      	cmp	r2, #1
10003f14:	bf1c      	itt	ne
10003f16:	f06f 0003 	mvnne.w	r0, #3
10003f1a:	bd10      	popne	{r4, pc}
10003f1c:	f41c 6fe0 	tst.w	ip, #1792	@ 0x700
10003f20:	bf1c      	itt	ne
10003f22:	f06f 0008 	mvnne.w	r0, #8
10003f26:	bd10      	popne	{r4, pc}
10003f28:	f41c 5f40 	tst.w	ip, #12288	@ 0x3000
10003f2c:	bf1c      	itt	ne
10003f2e:	f06f 0009 	mvnne.w	r0, #9
10003f32:	bd10      	popne	{r4, pc}
10003f34:	f41c 4f40 	tst.w	ip, #49152	@ 0xc000
10003f38:	bf1c      	itt	ne
10003f3a:	f06f 000a 	mvnne.w	r0, #10
10003f3e:	bd10      	popne	{r4, pc}
10003f40:	f41c 3f40 	tst.w	ip, #196608	@ 0x30000
10003f44:	bf1c      	itt	ne
10003f46:	f06f 000b 	mvnne.w	r0, #11
10003f4a:	bd10      	popne	{r4, pc}
10003f4c:	f240 021c 	movw	r2, #28
10003f50:	f6c3 0200 	movt	r2, #14336	@ 0x3800
10003f54:	6812      	ldr	r2, [r2, #0]
10003f56:	fbb2 f1f1 	udiv	r1, r2, r1
10003f5a:	2910      	cmp	r1, #16
10003f5c:	bf3c      	itt	cc
10003f5e:	f06f 0007 	mvncc.w	r0, #7
10003f62:	bd10      	popcc	{r4, pc}
10003f64:	6081      	str	r1, [r0, #8]
10003f66:	f044 0004 	orr.w	r0, r4, #4
10003f6a:	f88e 0000 	strb.w	r0, [lr]
10003f6e:	2000      	movs	r0, #0
10003f70:	bd10      	pop	{r4, pc}
10003f72:	2008      	movs	r0, #8
10003f74:	f2c4 0020 	movt	r0, #16416	@ 0x4020
10003f78:	6801      	ldr	r1, [r0, #0]
10003f7a:	f021 0104 	bic.w	r1, r1, #4
10003f7e:	6001      	str	r1, [r0, #0]
10003f80:	f240 1190 	movw	r1, #400	@ 0x190
10003f84:	f6c3 0100 	movt	r1, #14336	@ 0x3800
10003f88:	2000      	movs	r0, #0
10003f8a:	7008      	strb	r0, [r1, #0]
10003f8c:	bd10      	pop	{r4, pc}
	...

10003f90 <USART0_GetCapabilities>:
10003f90:	f240 6001 	movw	r0, #1537	@ 0x601
10003f94:	4770      	bx	lr
	...

10003f98 <USART0_GetModemStatus>:
10003f98:	2000      	movs	r0, #0
10003f9a:	4770      	bx	lr

10003f9c <USART0_GetRxCount>:
10003f9c:	f240 109c 	movw	r0, #412	@ 0x19c
10003fa0:	f6c3 0000 	movt	r0, #14336	@ 0x3800
10003fa4:	6900      	ldr	r0, [r0, #16]
10003fa6:	4770      	bx	lr

10003fa8 <USART0_GetStatus>:
10003fa8:	f240 1090 	movw	r0, #400	@ 0x190
10003fac:	f240 1194 	movw	r1, #404	@ 0x194
10003fb0:	f6c3 0000 	movt	r0, #14336	@ 0x3800
10003fb4:	f6c3 0100 	movt	r1, #14336	@ 0x3800
10003fb8:	7800      	ldrb	r0, [r0, #0]
10003fba:	7809      	ldrb	r1, [r1, #0]
10003fbc:	f361 0041 	bfi	r0, r1, #1, #1
10003fc0:	4770      	bx	lr
	...

10003fc4 <USART0_GetTxCount>:
10003fc4:	f240 109c 	movw	r0, #412	@ 0x19c
10003fc8:	f6c3 0000 	movt	r0, #14336	@ 0x3800
10003fcc:	6940      	ldr	r0, [r0, #20]
10003fce:	4770      	bx	lr

10003fd0 <USART0_Initialize>:
10003fd0:	f240 1198 	movw	r1, #408	@ 0x198
10003fd4:	f6c3 0100 	movt	r1, #14336	@ 0x3800
10003fd8:	780a      	ldrb	r2, [r1, #0]
10003fda:	07d2      	lsls	r2, r2, #31
10003fdc:	d11d      	bne.n	1000401a <USART0_Initialize+0x4a>
10003fde:	f240 128c 	movw	r2, #396	@ 0x18c
10003fe2:	f6c3 0200 	movt	r2, #14336	@ 0x3800
10003fe6:	6010      	str	r0, [r2, #0]
10003fe8:	f240 109c 	movw	r0, #412	@ 0x19c
10003fec:	f6c3 0000 	movt	r0, #14336	@ 0x3800
10003ff0:	2200      	movs	r2, #0
10003ff2:	e9c0 2200 	strd	r2, r2, [r0]
10003ff6:	e9c0 2202 	strd	r2, r2, [r0, #8]
10003ffa:	e9c0 2204 	strd	r2, r2, [r0, #16]
10003ffe:	f241 0018 	movw	r0, #4120	@ 0x1018
10004002:	f2c4 0010 	movt	r0, #16400	@ 0x4010
10004006:	6802      	ldr	r2, [r0, #0]
10004008:	f042 0201 	orr.w	r2, r2, #1
1000400c:	6002      	str	r2, [r0, #0]
1000400e:	6802      	ldr	r2, [r0, #0]
10004010:	f042 0202 	orr.w	r2, r2, #2
10004014:	6002      	str	r2, [r0, #0]
10004016:	2001      	movs	r0, #1
10004018:	7008      	strb	r0, [r1, #0]
1000401a:	2000      	movs	r0, #0
1000401c:	4770      	bx	lr
	...

10004020 <USART0_PowerControl>:
10004020:	2802      	cmp	r0, #2
10004022:	d023      	beq.n	1000406c <USART0_PowerControl+0x4c>
10004024:	2801      	cmp	r0, #1
10004026:	bf04      	itt	eq
10004028:	f06f 0003 	mvneq.w	r0, #3
1000402c:	4770      	bxeq	lr
1000402e:	b9d8      	cbnz	r0, 10004068 <USART0_PowerControl+0x48>
10004030:	f240 1098 	movw	r0, #408	@ 0x198
10004034:	f6c3 0000 	movt	r0, #14336	@ 0x3800
10004038:	7801      	ldrb	r1, [r0, #0]
1000403a:	2201      	movs	r2, #1
1000403c:	f001 01fd 	and.w	r1, r1, #253	@ 0xfd
10004040:	7001      	strb	r1, [r0, #0]
10004042:	f24e 2184 	movw	r1, #57988	@ 0xe284
10004046:	f06f 00ff 	mvn.w	r0, #255	@ 0xff
1000404a:	f2ce 0100 	movt	r1, #57344	@ 0xe000
1000404e:	500a      	str	r2, [r1, r0]
10004050:	f3bf 8f4f 	dsb	sy
10004054:	f3bf 8f6f 	isb	sy
10004058:	600a      	str	r2, [r1, #0]
1000405a:	2202      	movs	r2, #2
1000405c:	500a      	str	r2, [r1, r0]
1000405e:	f3bf 8f4f 	dsb	sy
10004062:	f3bf 8f6f 	isb	sy
10004066:	600a      	str	r2, [r1, #0]
10004068:	2000      	movs	r0, #0
1000406a:	4770      	bx	lr
1000406c:	f240 1198 	movw	r1, #408	@ 0x198
10004070:	f6c3 0100 	movt	r1, #14336	@ 0x3800
10004074:	7808      	ldrb	r0, [r1, #0]
10004076:	07c2      	lsls	r2, r0, #31
10004078:	bf04      	itt	eq
1000407a:	f04f 30ff 	moveq.w	r0, #4294967295
1000407e:	4770      	bxeq	lr
10004080:	0780      	lsls	r0, r0, #30
10004082:	f04f 0000 	mov.w	r0, #0
10004086:	bf48      	it	mi
10004088:	4770      	bxmi	lr
1000408a:	f240 1290 	movw	r2, #400	@ 0x190
1000408e:	f6c3 0200 	movt	r2, #14336	@ 0x3800
10004092:	7010      	strb	r0, [r2, #0]
10004094:	f240 1294 	movw	r2, #404	@ 0x194
10004098:	f6c3 0200 	movt	r2, #14336	@ 0x3800
1000409c:	7010      	strb	r0, [r2, #0]
1000409e:	2003      	movs	r0, #3
100040a0:	7008      	strb	r0, [r1, #0]
100040a2:	f24e 2084 	movw	r0, #57988	@ 0xe284
100040a6:	f2ce 0000 	movt	r0, #57344	@ 0xe000
100040aa:	2101      	movs	r1, #1
100040ac:	f64f 6280 	movw	r2, #65152	@ 0xfe80
100040b0:	6001      	str	r1, [r0, #0]
100040b2:	f6cf 72ff 	movt	r2, #65535	@ 0xffff
100040b6:	5081      	str	r1, [r0, r2]
100040b8:	2102      	movs	r1, #2
100040ba:	6001      	str	r1, [r0, #0]
100040bc:	5081      	str	r1, [r0, r2]
100040be:	2000      	movs	r0, #0
100040c0:	4770      	bx	lr
	...

100040c4 <USART0_Receive>:
100040c4:	4602      	mov	r2, r0
100040c6:	2800      	cmp	r0, #0
100040c8:	f06f 0004 	mvn.w	r0, #4
100040cc:	bf18      	it	ne
100040ce:	2900      	cmpne	r1, #0
100040d0:	d100      	bne.n	100040d4 <USART0_Receive+0x10>
100040d2:	4770      	bx	lr
100040d4:	f240 1098 	movw	r0, #408	@ 0x198
100040d8:	f6c3 0000 	movt	r0, #14336	@ 0x3800
100040dc:	7800      	ldrb	r0, [r0, #0]
100040de:	0740      	lsls	r0, r0, #29
100040e0:	bf5c      	itt	pl
100040e2:	f04f 30ff 	movpl.w	r0, #4294967295
100040e6:	4770      	bxpl	lr
100040e8:	f240 1394 	movw	r3, #404	@ 0x194
100040ec:	f6c3 0300 	movt	r3, #14336	@ 0x3800
100040f0:	7818      	ldrb	r0, [r3, #0]
100040f2:	b9f0      	cbnz	r0, 10004132 <USART0_Receive+0x6e>
100040f4:	f240 0c08 	movw	ip, #8
100040f8:	f2c4 0c20 	movt	ip, #16416	@ 0x4020
100040fc:	f85c 0c04 	ldr.w	r0, [ip, #-4]
10004100:	0780      	lsls	r0, r0, #30
10004102:	d416      	bmi.n	10004132 <USART0_Receive+0x6e>
10004104:	b580      	push	{r7, lr}
10004106:	f240 1e9c 	movw	lr, #412	@ 0x19c
1000410a:	f6c3 0e00 	movt	lr, #14336	@ 0x3800
1000410e:	f8ce 1000 	str.w	r1, [lr]
10004112:	2000      	movs	r0, #0
10004114:	2101      	movs	r1, #1
10004116:	f8ce 2008 	str.w	r2, [lr, #8]
1000411a:	f8ce 0010 	str.w	r0, [lr, #16]
1000411e:	7019      	strb	r1, [r3, #0]
10004120:	f8dc 1000 	ldr.w	r1, [ip]
10004124:	f041 0108 	orr.w	r1, r1, #8
10004128:	f8cc 1000 	str.w	r1, [ip]
1000412c:	e8bd 4080 	ldmia.w	sp!, {r7, lr}
10004130:	4770      	bx	lr
10004132:	f06f 0001 	mvn.w	r0, #1
10004136:	4770      	bx	lr

10004138 <USART0_Send>:
10004138:	2800      	cmp	r0, #0
1000413a:	f06f 0204 	mvn.w	r2, #4
1000413e:	bf18      	it	ne
10004140:	2900      	cmpne	r1, #0
10004142:	d101      	bne.n	10004148 <USART0_Send+0x10>
10004144:	4610      	mov	r0, r2
10004146:	4770      	bx	lr
10004148:	f240 1298 	movw	r2, #408	@ 0x198
1000414c:	f6c3 0200 	movt	r2, #14336	@ 0x3800
10004150:	7812      	ldrb	r2, [r2, #0]
10004152:	0752      	lsls	r2, r2, #29
10004154:	d403      	bmi.n	1000415e <USART0_Send+0x26>
10004156:	f04f 32ff 	mov.w	r2, #4294967295
1000415a:	4610      	mov	r0, r2
1000415c:	4770      	bx	lr
1000415e:	f240 1290 	movw	r2, #400	@ 0x190
10004162:	f6c3 0200 	movt	r2, #14336	@ 0x3800
10004166:	7813      	ldrb	r3, [r2, #0]
10004168:	b9e3      	cbnz	r3, 100041a4 <USART0_Send+0x6c>
1000416a:	f240 0c08 	movw	ip, #8
1000416e:	f2c4 0c20 	movt	ip, #16416	@ 0x4020
10004172:	f85c 3c04 	ldr.w	r3, [ip, #-4]
10004176:	07db      	lsls	r3, r3, #31
10004178:	d114      	bne.n	100041a4 <USART0_Send+0x6c>
1000417a:	2301      	movs	r3, #1
1000417c:	7013      	strb	r3, [r2, #0]
1000417e:	f240 139c 	movw	r3, #412	@ 0x19c
10004182:	f6c3 0300 	movt	r3, #14336	@ 0x3800
10004186:	2200      	movs	r2, #0
10004188:	60d8      	str	r0, [r3, #12]
1000418a:	6059      	str	r1, [r3, #4]
1000418c:	615a      	str	r2, [r3, #20]
1000418e:	f8dc 1000 	ldr.w	r1, [ip]
10004192:	f041 0104 	orr.w	r1, r1, #4
10004196:	f8cc 1000 	str.w	r1, [ip]
1000419a:	7800      	ldrb	r0, [r0, #0]
1000419c:	f84c 0c08 	str.w	r0, [ip, #-8]
100041a0:	4610      	mov	r0, r2
100041a2:	4770      	bx	lr
100041a4:	f06f 0001 	mvn.w	r0, #1
100041a8:	4770      	bx	lr
	...

100041ac <USART0_SetModemControl>:
100041ac:	f06f 0003 	mvn.w	r0, #3
100041b0:	4770      	bx	lr
	...

100041b4 <USART0_Transfer>:
100041b4:	f06f 0003 	mvn.w	r0, #3
100041b8:	4770      	bx	lr
	...

100041bc <USART0_Uninitialize>:
100041bc:	f241 0018 	movw	r0, #4120	@ 0x1018
100041c0:	f2c4 0010 	movt	r0, #16400	@ 0x4010
100041c4:	6801      	ldr	r1, [r0, #0]
100041c6:	f240 1298 	movw	r2, #408	@ 0x198
100041ca:	f021 0101 	bic.w	r1, r1, #1
100041ce:	6001      	str	r1, [r0, #0]
100041d0:	6801      	ldr	r1, [r0, #0]
100041d2:	f6c3 0200 	movt	r2, #14336	@ 0x3800
100041d6:	f021 0102 	bic.w	r1, r1, #2
100041da:	6001      	str	r1, [r0, #0]
100041dc:	2100      	movs	r1, #0
100041de:	2000      	movs	r0, #0
100041e0:	7011      	strb	r1, [r2, #0]
100041e2:	4770      	bx	lr

100041e4 <USARTx_GetVersion>:
100041e4:	f240 2004 	movw	r0, #516	@ 0x204
100041e8:	f2c0 1000 	movt	r0, #256	@ 0x100
100041ec:	4770      	bx	lr
	...

100041f0 <__debug_DWT_Registers>:
100041f0:	b510      	push	{r4, lr}
100041f2:	f246 2066 	movw	r0, #25190	@ 0x6266
100041f6:	f2c1 0000 	movt	r0, #4096	@ 0x1000
100041fa:	f7fc fa51 	bl	100006a0 <puts>
100041fe:	f240 0410 	movw	r4, #16
10004202:	f6c3 0400 	movt	r4, #14336	@ 0x3800
10004206:	6820      	ldr	r0, [r4, #0]
10004208:	6a01      	ldr	r1, [r0, #32]
1000420a:	f246 10d7 	movw	r0, #25047	@ 0x61d7
1000420e:	f2c1 0000 	movt	r0, #4096	@ 0x1000
10004212:	f7fc f973 	bl	100004fc <__2printf>
10004216:	6820      	ldr	r0, [r4, #0]
10004218:	6b01      	ldr	r1, [r0, #48]	@ 0x30
1000421a:	f246 10ed 	movw	r0, #25069	@ 0x61ed
1000421e:	f2c1 0000 	movt	r0, #4096	@ 0x1000
10004222:	f7fc f96b 	bl	100004fc <__2printf>
10004226:	6820      	ldr	r0, [r4, #0]
10004228:	6c01      	ldr	r1, [r0, #64]	@ 0x40
1000422a:	f246 2003 	movw	r0, #25091	@ 0x6203
1000422e:	f2c1 0000 	movt	r0, #4096	@ 0x1000
10004232:	f7fc f963 	bl	100004fc <__2printf>
10004236:	6820      	ldr	r0, [r4, #0]
10004238:	6d01      	ldr	r1, [r0, #80]	@ 0x50
1000423a:	a00c      	add	r0, pc, #48	@ (adr r0, 1000426c <__debug_DWT_Registers+0x7c>)
1000423c:	f7fc f95e 	bl	100004fc <__2printf>
10004240:	6820      	ldr	r0, [r4, #0]
10004242:	6a81      	ldr	r1, [r0, #40]	@ 0x28
10004244:	a00f      	add	r0, pc, #60	@ (adr r0, 10004284 <__debug_DWT_Registers+0x94>)
10004246:	f7fc f959 	bl	100004fc <__2printf>
1000424a:	6820      	ldr	r0, [r4, #0]
1000424c:	6b81      	ldr	r1, [r0, #56]	@ 0x38
1000424e:	a014      	add	r0, pc, #80	@ (adr r0, 100042a0 <__debug_DWT_Registers+0xb0>)
10004250:	f7fc f954 	bl	100004fc <__2printf>
10004254:	6820      	ldr	r0, [r4, #0]
10004256:	6c81      	ldr	r1, [r0, #72]	@ 0x48
10004258:	a018      	add	r0, pc, #96	@ (adr r0, 100042bc <__debug_DWT_Registers+0xcc>)
1000425a:	f7fc f94f 	bl	100004fc <__2printf>
1000425e:	6820      	ldr	r0, [r4, #0]
10004260:	6d81      	ldr	r1, [r0, #88]	@ 0x58
10004262:	a01d      	add	r0, pc, #116	@ (adr r0, 100042d8 <__debug_DWT_Registers+0xe8>)
10004264:	e8bd 4010 	ldmia.w	sp!, {r4, lr}
10004268:	f7fc b948 	b.w	100004fc <__2printf>
1000426c:	474f4c5b 	.word	0x474f4c5b
10004270:	5744205d 	.word	0x5744205d
10004274:	4f435f54 	.word	0x4f435f54
10004278:	2033504d 	.word	0x2033504d
1000427c:	7825203a 	.word	0x7825203a
10004280:	0000000a 	.word	0x0000000a
10004284:	474f4c5b 	.word	0x474f4c5b
10004288:	5744205d 	.word	0x5744205d
1000428c:	55465f54 	.word	0x55465f54
10004290:	4954434e 	.word	0x4954434e
10004294:	20304e4f 	.word	0x20304e4f
10004298:	7825203a 	.word	0x7825203a
1000429c:	0000000a 	.word	0x0000000a
100042a0:	474f4c5b 	.word	0x474f4c5b
100042a4:	5744205d 	.word	0x5744205d
100042a8:	55465f54 	.word	0x55465f54
100042ac:	4954434e 	.word	0x4954434e
100042b0:	20314e4f 	.word	0x20314e4f
100042b4:	7825203a 	.word	0x7825203a
100042b8:	0000000a 	.word	0x0000000a
100042bc:	474f4c5b 	.word	0x474f4c5b
100042c0:	5744205d 	.word	0x5744205d
100042c4:	55465f54 	.word	0x55465f54
100042c8:	4954434e 	.word	0x4954434e
100042cc:	20324e4f 	.word	0x20324e4f
100042d0:	7825203a 	.word	0x7825203a
100042d4:	0000000a 	.word	0x0000000a
100042d8:	474f4c5b 	.word	0x474f4c5b
100042dc:	5744205d 	.word	0x5744205d
100042e0:	55465f54 	.word	0x55465f54
100042e4:	4954434e 	.word	0x4954434e
100042e8:	20334e4f 	.word	0x20334e4f
100042ec:	7825203a 	.word	0x7825203a
100042f0:	0000000a 	.word	0x0000000a

100042f4 <__debug_MTB_Registers>:
100042f4:	b510      	push	{r4, lr}
100042f6:	f246 2043 	movw	r0, #25155	@ 0x6243
100042fa:	f2c1 0000 	movt	r0, #4096	@ 0x1000
100042fe:	f7fc f9cf 	bl	100006a0 <puts>
10004302:	f240 0424 	movw	r4, #36	@ 0x24
10004306:	f6c3 0400 	movt	r4, #14336	@ 0x3800
1000430a:	6820      	ldr	r0, [r4, #0]
1000430c:	68c1      	ldr	r1, [r0, #12]
1000430e:	f246 2019 	movw	r0, #25113	@ 0x6219
10004312:	f2c1 0000 	movt	r0, #4096	@ 0x1000
10004316:	f7fc f8f1 	bl	100004fc <__2printf>
1000431a:	6820      	ldr	r0, [r4, #0]
1000431c:	6801      	ldr	r1, [r0, #0]
1000431e:	a00f      	add	r0, pc, #60	@ (adr r0, 1000435c <__debug_MTB_Registers+0x68>)
10004320:	f7fc f8ec 	bl	100004fc <__2printf>
10004324:	6820      	ldr	r0, [r4, #0]
10004326:	6841      	ldr	r1, [r0, #4]
10004328:	a013      	add	r0, pc, #76	@ (adr r0, 10004378 <__debug_MTB_Registers+0x84>)
1000432a:	f7fc f8e7 	bl	100004fc <__2printf>
1000432e:	6820      	ldr	r0, [r4, #0]
10004330:	6881      	ldr	r1, [r0, #8]
10004332:	a017      	add	r0, pc, #92	@ (adr r0, 10004390 <__debug_MTB_Registers+0x9c>)
10004334:	f7fc f8e2 	bl	100004fc <__2printf>
10004338:	6820      	ldr	r0, [r4, #0]
1000433a:	6901      	ldr	r1, [r0, #16]
1000433c:	a01a      	add	r0, pc, #104	@ (adr r0, 100043a8 <__debug_MTB_Registers+0xb4>)
1000433e:	f7fc f8dd 	bl	100004fc <__2printf>
10004342:	6820      	ldr	r0, [r4, #0]
10004344:	6941      	ldr	r1, [r0, #20]
10004346:	a01e      	add	r0, pc, #120	@ (adr r0, 100043c0 <__debug_MTB_Registers+0xcc>)
10004348:	f7fc f8d8 	bl	100004fc <__2printf>
1000434c:	6820      	ldr	r0, [r4, #0]
1000434e:	6981      	ldr	r1, [r0, #24]
10004350:	a021      	add	r0, pc, #132	@ (adr r0, 100043d8 <__debug_MTB_Registers+0xe4>)
10004352:	e8bd 4010 	ldmia.w	sp!, {r4, lr}
10004356:	f7fc b8d1 	b.w	100004fc <__2printf>
1000435a:	bf00      	nop
1000435c:	474f4c5b 	.word	0x474f4c5b
10004360:	544d205d 	.word	0x544d205d
10004364:	4f505f42 	.word	0x4f505f42
10004368:	49544953 	.word	0x49544953
1000436c:	3a204e4f 	.word	0x3a204e4f
10004370:	0a782520 	.word	0x0a782520
10004374:	00000000 	.word	0x00000000
10004378:	474f4c5b 	.word	0x474f4c5b
1000437c:	544d205d 	.word	0x544d205d
10004380:	414d5f42 	.word	0x414d5f42
10004384:	52455453 	.word	0x52455453
10004388:	25203a20 	.word	0x25203a20
1000438c:	00000a78 	.word	0x00000a78
10004390:	474f4c5b 	.word	0x474f4c5b
10004394:	544d205d 	.word	0x544d205d
10004398:	4c465f42 	.word	0x4c465f42
1000439c:	3a20574f 	.word	0x3a20574f
100043a0:	0a782520 	.word	0x0a782520
100043a4:	00000000 	.word	0x00000000
100043a8:	474f4c5b 	.word	0x474f4c5b
100043ac:	544d205d 	.word	0x544d205d
100043b0:	53545f42 	.word	0x53545f42
100043b4:	54524154 	.word	0x54524154
100043b8:	25203a20 	.word	0x25203a20
100043bc:	00000a78 	.word	0x00000a78
100043c0:	474f4c5b 	.word	0x474f4c5b
100043c4:	544d205d 	.word	0x544d205d
100043c8:	53545f42 	.word	0x53545f42
100043cc:	20504f54 	.word	0x20504f54
100043d0:	7825203a 	.word	0x7825203a
100043d4:	0000000a 	.word	0x0000000a
100043d8:	474f4c5b 	.word	0x474f4c5b
100043dc:	544d205d 	.word	0x544d205d
100043e0:	45535f42 	.word	0x45535f42
100043e4:	45525543 	.word	0x45525543
100043e8:	25203a20 	.word	0x25203a20
100043ec:	00000a78 	.word	0x00000a78

100043f0 <_sys_close>:
100043f0:	f248 0104 	movw	r1, #32772	@ 0x8004
100043f4:	1a41      	subs	r1, r0, r1
100043f6:	2000      	movs	r0, #0
100043f8:	f111 0f03 	cmn.w	r1, #3
100043fc:	bf38      	it	cc
100043fe:	f04f 30ff 	movcc.w	r0, #4294967295
10004402:	4770      	bx	lr

10004404 <_sys_flen>:
10004404:	2000      	movs	r0, #0
10004406:	4770      	bx	lr

10004408 <_sys_istty>:
10004408:	f248 0101 	movw	r1, #32769	@ 0x8001
1000440c:	1a41      	subs	r1, r0, r1
1000440e:	2000      	movs	r0, #0
10004410:	2903      	cmp	r1, #3
10004412:	bf38      	it	cc
10004414:	2001      	movcc	r0, #1
10004416:	4770      	bx	lr

10004418 <_sys_open>:
10004418:	b350      	cbz	r0, 10004470 <_sys_open+0x58>
1000441a:	7801      	ldrb	r1, [r0, #0]
1000441c:	293a      	cmp	r1, #58	@ 0x3a
1000441e:	d127      	bne.n	10004470 <_sys_open+0x58>
10004420:	b510      	push	{r4, lr}
10004422:	f246 11c8 	movw	r1, #25032	@ 0x61c8
10004426:	f2c1 0100 	movt	r1, #4096	@ 0x1000
1000442a:	4604      	mov	r4, r0
1000442c:	f7fc f9a4 	bl	10000778 <strcmp>
10004430:	2800      	cmp	r0, #0
10004432:	bf04      	itt	eq
10004434:	f248 0001 	movweq	r0, #32769	@ 0x8001
10004438:	bd10      	popeq	{r4, pc}
1000443a:	f246 11cf 	movw	r1, #25039	@ 0x61cf
1000443e:	f2c1 0100 	movt	r1, #4096	@ 0x1000
10004442:	4620      	mov	r0, r4
10004444:	f7fc f998 	bl	10000778 <strcmp>
10004448:	2800      	cmp	r0, #0
1000444a:	bf04      	itt	eq
1000444c:	f248 0002 	movweq	r0, #32770	@ 0x8002
10004450:	bd10      	popeq	{r4, pc}
10004452:	f246 11c0 	movw	r1, #25024	@ 0x61c0
10004456:	f2c1 0100 	movt	r1, #4096	@ 0x1000
1000445a:	4620      	mov	r0, r4
1000445c:	f7fc f98c 	bl	10000778 <strcmp>
10004460:	4601      	mov	r1, r0
10004462:	f04f 30ff 	mov.w	r0, #4294967295
10004466:	2900      	cmp	r1, #0
10004468:	bf08      	it	eq
1000446a:	f248 0003 	movweq	r0, #32771	@ 0x8003
1000446e:	bd10      	pop	{r4, pc}
10004470:	f04f 30ff 	mov.w	r0, #4294967295
10004474:	4770      	bx	lr
	...

10004478 <_sys_seek>:
10004478:	f04f 30ff 	mov.w	r0, #4294967295
1000447c:	4770      	bx	lr
	...

10004480 <_sys_write>:
10004480:	b5b0      	push	{r4, r5, r7, lr}
10004482:	4614      	mov	r4, r2
10004484:	f248 0203 	movw	r2, #32771	@ 0x8003
10004488:	4290      	cmp	r0, r2
1000448a:	d00f      	beq.n	100044ac <_sys_write+0x2c>
1000448c:	f248 0202 	movw	r2, #32770	@ 0x8002
10004490:	4290      	cmp	r0, r2
10004492:	bf1c      	itt	ne
10004494:	f04f 30ff 	movne.w	r0, #4294967295
10004498:	bdb0      	popne	{r4, r5, r7, pc}
1000449a:	b13c      	cbz	r4, 100044ac <_sys_write+0x2c>
1000449c:	1e4d      	subs	r5, r1, #1
1000449e:	bf00      	nop
100044a0:	f815 0f01 	ldrb.w	r0, [r5, #1]!
100044a4:	f000 fb3e 	bl	10004b24 <stdout_putchar>
100044a8:	3c01      	subs	r4, #1
100044aa:	d1f9      	bne.n	100044a0 <_sys_write+0x20>
100044ac:	2000      	movs	r0, #0
100044ae:	bdb0      	pop	{r4, r5, r7, pc}

100044b0 <eCFA_init_cfa>:
100044b0:	b5b0      	push	{r4, r5, r7, lr}
100044b2:	4604      	mov	r4, r0
100044b4:	a02c      	add	r0, pc, #176	@ (adr r0, 10004568 <eCFA_init_cfa+0xb8>)
100044b6:	f7fc f8f3 	bl	100006a0 <puts>
100044ba:	2101      	movs	r1, #1
100044bc:	4620      	mov	r0, r4
100044be:	f800 1b08 	strb.w	r1, [r0], #8
100044c2:	f240 11d8 	movw	r1, #472	@ 0x1d8
100044c6:	f6c3 0100 	movt	r1, #14336	@ 0x3800
100044ca:	3108      	adds	r1, #8
100044cc:	2270      	movs	r2, #112	@ 0x70
100044ce:	f7fc f8fd 	bl	100006cc <memcmp>
100044d2:	b118      	cbz	r0, 100044dc <eCFA_init_cfa+0x2c>
100044d4:	2565      	movs	r5, #101	@ 0x65
100044d6:	4628      	mov	r0, r5
100044d8:	7025      	strb	r5, [r4, #0]
100044da:	bdb0      	pop	{r4, r5, r7, pc}
100044dc:	4620      	mov	r0, r4
100044de:	f640 0164 	movw	r1, #2148	@ 0x864
100044e2:	f7fc f91f 	bl	10000724 <__aeabi_memclr4>
100044e6:	f000 f9d3 	bl	10004890 <mtb_init>
100044ea:	f240 15b8 	movw	r5, #440	@ 0x1b8
100044ee:	f6c3 0500 	movt	r5, #14336	@ 0x3800
100044f2:	6829      	ldr	r1, [r5, #0]
100044f4:	a023      	add	r0, pc, #140	@ (adr r0, 10004584 <eCFA_init_cfa+0xd4>)
100044f6:	f7fc f801 	bl	100004fc <__2printf>
100044fa:	6828      	ldr	r0, [r5, #0]
100044fc:	e92d 0ff0 	stmdb	sp!, {r4, r5, r6, r7, r8, r9, sl, fp}
10004500:	f020 0001 	bic.w	r0, r0, #1
10004504:	b0a2      	sub	sp, #136	@ 0x88
10004506:	ec2d 0a00 	vlstm	sp
1000450a:	4601      	mov	r1, r0
1000450c:	4602      	mov	r2, r0
1000450e:	4603      	mov	r3, r0
10004510:	4604      	mov	r4, r0
10004512:	4605      	mov	r5, r0
10004514:	4606      	mov	r6, r0
10004516:	4607      	mov	r7, r0
10004518:	4680      	mov	r8, r0
1000451a:	4681      	mov	r9, r0
1000451c:	4682      	mov	sl, r0
1000451e:	4683      	mov	fp, r0
10004520:	4684      	mov	ip, r0
10004522:	f380 8c00 	msr	CPSR_fs, r0
10004526:	4784      	blxns	r0
10004528:	f3ef 8c14 	mrs	ip, CONTROL
1000452c:	f01c 0f08 	tst.w	ip, #8
10004530:	bf18      	it	ne
10004532:	eeb0 0a40 	vmovne.f32	s0, s0
10004536:	ec3d 0a00 	vlldm	sp
1000453a:	b022      	add	sp, #136	@ 0x88
1000453c:	e8bd 0ff0 	ldmia.w	sp!, {r4, r5, r6, r7, r8, r9, sl, fp}
10004540:	a01b      	add	r0, pc, #108	@ (adr r0, 100045b0 <eCFA_init_cfa+0x100>)
10004542:	f7fc f8ad 	bl	100006a0 <puts>
10004546:	f7ff fed5 	bl	100042f4 <__debug_MTB_Registers>
1000454a:	f7ff fe51 	bl	100041f0 <__debug_DWT_Registers>
1000454e:	f04f 0502 	mov.w	r5, #2
10004552:	7025      	strb	r5, [r4, #0]
10004554:	f000 fb02 	bl	10004b5c <vMTB_sendBuffer>
10004558:	f000 f96c 	bl	10004834 <mtb_exit>
1000455c:	a01f      	add	r0, pc, #124	@ (adr r0, 100045dc <eCFA_init_cfa+0x12c>)
1000455e:	f7fc f89f 	bl	100006a0 <puts>
10004562:	4628      	mov	r0, r5
10004564:	bdb0      	pop	{r4, r5, r7, pc}
10004566:	bf00      	nop
10004568:	474f4c5b 	.word	0x474f4c5b
1000456c:	4643205d 	.word	0x4643205d
10004570:	75662041 	.word	0x75662041
10004574:	6f69746e 	.word	0x6f69746e
10004578:	6e65206e 	.word	0x6e65206e
1000457c:	2e797274 	.word	0x2e797274
10004580:	00000000 	.word	0x00000000
10004584:	474f4c5b 	.word	0x474f4c5b
10004588:	4643205d 	.word	0x4643205d
1000458c:	61432041 	.word	0x61432041
10004590:	6e696c6c 	.word	0x6e696c6c
10004594:	6f4e2067 	.word	0x6f4e2067
10004598:	6553206e 	.word	0x6553206e
1000459c:	65727563 	.word	0x65727563
100045a0:	6e754620 	.word	0x6e754620
100045a4:	6f697463 	.word	0x6f697463
100045a8:	203a206e 	.word	0x203a206e
100045ac:	000a7825 	.word	0x000a7825
100045b0:	474f4c5b 	.word	0x474f4c5b
100045b4:	4643205d 	.word	0x4643205d
100045b8:	65522041 	.word	0x65522041
100045bc:	6e727574 	.word	0x6e727574
100045c0:	66206465 	.word	0x66206465
100045c4:	206d6f72 	.word	0x206d6f72
100045c8:	206e6f4e 	.word	0x206e6f4e
100045cc:	75636553 	.word	0x75636553
100045d0:	46206572 	.word	0x46206572
100045d4:	74636e75 	.word	0x74636e75
100045d8:	006e6f69 	.word	0x006e6f69
100045dc:	474f4c5b 	.word	0x474f4c5b
100045e0:	4643205d 	.word	0x4643205d
100045e4:	75662041 	.word	0x75662041
100045e8:	6f69746e 	.word	0x6f69746e
100045ec:	7865206e 	.word	0x7865206e
100045f0:	00007469 	.word	0x00007469

100045f4 <main>:
100045f4:	b570      	push	{r4, r5, r6, lr}
100045f6:	b084      	sub	sp, #16
100045f8:	2104      	movs	r1, #4
100045fa:	f24e 0510 	movw	r5, #57360	@ 0xe010
100045fe:	f44f 1000 	mov.w	r0, #2097152	@ 0x200000
10004602:	f2c0 0120 	movt	r1, #32
10004606:	f2ce 0500 	movt	r5, #57344	@ 0xe000
1000460a:	6800      	ldr	r0, [r0, #0]
1000460c:	680c      	ldr	r4, [r1, #0]
1000460e:	f8d5 1f30 	ldr.w	r1, [r5, #3888]	@ 0xf30
10004612:	f401 617f 	and.w	r1, r1, #4080	@ 0xff0
10004616:	f1a1 0220 	sub.w	r2, r1, #32
1000461a:	fab2 f282 	clz	r2, r2
1000461e:	f5b1 7f08 	cmp.w	r1, #544	@ 0x220
10004622:	f644 61a5 	movw	r1, #20133	@ 0x4ea5
10004626:	ea4f 1252 	mov.w	r2, r2, lsr #5
1000462a:	f2c4 1147 	movt	r1, #16711	@ 0x4147
1000462e:	bf08      	it	eq
10004630:	2202      	moveq	r2, #2
10004632:	9203      	str	r2, [sp, #12]
10004634:	9102      	str	r1, [sp, #8]
10004636:	f64e 6195 	movw	r1, #61077	@ 0xee95
1000463a:	f6c3 7129 	movt	r1, #16169	@ 0x3f29
1000463e:	9101      	str	r1, [sp, #4]
10004640:	f24e 318f 	movw	r1, #58255	@ 0xe38f
10004644:	f2c4 11c0 	movt	r1, #16832	@ 0x41c0
10004648:	9100      	str	r1, [sp, #0]
1000464a:	ed9d 0a00 	vldr	s0, [sp]
1000464e:	ed9d 1a02 	vldr	s2, [sp, #8]
10004652:	ed9d 2a01 	vldr	s4, [sp, #4]
10004656:	ee81 1a02 	vdiv.f32	s2, s2, s4
1000465a:	ee20 0a01 	vmul.f32	s0, s0, s2
1000465e:	ed8d 0a00 	vstr	s0, [sp]
10004662:	f3ef 8108 	mrs	r1, MSP
10004666:	f3ef 8109 	mrs	r1, PSP
1000466a:	f380 8888 	msr	MSP_NS, r0
1000466e:	f3ef 8088 	mrs	r0, MSP_NS
10004672:	f04f 5008 	mov.w	r0, #570425344	@ 0x22000000
10004676:	f380 8889 	msr	PSP_NS, r0
1000467a:	f3ef 8089 	mrs	r0, PSP_NS
1000467e:	f7ff faef 	bl	10003c60 <SystemCoreClockUpdate>
10004682:	f000 f9ff 	bl	10004a84 <stdout_init>
10004686:	f7fe fedb 	bl	10003440 <LED_Initialize>
1000468a:	f7fc ffa9 	bl	100015e0 <GLCD_Initialize>
1000468e:	f246 10b0 	movw	r0, #25008	@ 0x61b0
10004692:	f2c1 0000 	movt	r0, #4096	@ 0x1000
10004696:	f7fe fcaf 	bl	10002ff8 <GLCD_SetFont>
1000469a:	f64f 70ff 	movw	r0, #65535	@ 0xffff
1000469e:	f7fe fca3 	bl	10002fe8 <GLCD_SetBackgroundColor>
100046a2:	f7fc fe91 	bl	100013c8 <GLCD_ClearScreen>
100046a6:	201f      	movs	r0, #31
100046a8:	f7fe fc9e 	bl	10002fe8 <GLCD_SetBackgroundColor>
100046ac:	f44f 4078 	mov.w	r0, #63488	@ 0xf800
100046b0:	f7fe fcaa 	bl	10003008 <GLCD_SetForegroundColor>
100046b4:	a229      	add	r2, pc, #164	@ (adr r2, 1000475c <main+0x168>)
100046b6:	2000      	movs	r0, #0
100046b8:	2100      	movs	r1, #0
100046ba:	2600      	movs	r6, #0
100046bc:	f7fc ff72 	bl	100015a4 <GLCD_DrawString>
100046c0:	a22c      	add	r2, pc, #176	@ (adr r2, 10004774 <main+0x180>)
100046c2:	2000      	movs	r0, #0
100046c4:	2118      	movs	r1, #24
100046c6:	f7fc ff6d 	bl	100015a4 <GLCD_DrawString>
100046ca:	a230      	add	r2, pc, #192	@ (adr r2, 1000478c <main+0x198>)
100046cc:	2000      	movs	r0, #0
100046ce:	2130      	movs	r1, #48	@ 0x30
100046d0:	f7fc ff68 	bl	100015a4 <GLCD_DrawString>
100046d4:	f64f 70ff 	movw	r0, #65535	@ 0xffff
100046d8:	f7fe fc86 	bl	10002fe8 <GLCD_SetBackgroundColor>
100046dc:	2000      	movs	r0, #0
100046de:	f7fe fc93 	bl	10003008 <GLCD_SetForegroundColor>
100046e2:	f8d5 0cf0 	ldr.w	r0, [r5, #3312]	@ 0xcf0
100046e6:	f640 5221 	movw	r2, #3361	@ 0xd21
100046ea:	f3c0 100b 	ubfx	r0, r0, #4, #12
100046ee:	a12d      	add	r1, pc, #180	@ (adr r1, 100047a4 <main+0x1b0>)
100046f0:	a332      	add	r3, pc, #200	@ (adr r3, 100047bc <main+0x1c8>)
100046f2:	4290      	cmp	r0, r2
100046f4:	bf08      	it	eq
100046f6:	460b      	moveq	r3, r1
100046f8:	a236      	add	r2, pc, #216	@ (adr r2, 100047d4 <main+0x1e0>)
100046fa:	f5b0 6f52 	cmp.w	r0, #3360	@ 0xd20
100046fe:	bf18      	it	ne
10004700:	461a      	movne	r2, r3
10004702:	2000      	movs	r0, #0
10004704:	2160      	movs	r1, #96	@ 0x60
10004706:	f7fc ff4d 	bl	100015a4 <GLCD_DrawString>
1000470a:	602e      	str	r6, [r5, #0]
1000470c:	f000 f9ba 	bl	10004a84 <stdout_init>
10004710:	e92d 0ff0 	stmdb	sp!, {r4, r5, r6, r7, r8, r9, sl, fp}
10004714:	f024 0401 	bic.w	r4, r4, #1
10004718:	b0a2      	sub	sp, #136	@ 0x88
1000471a:	ec2d 0a00 	vlstm	sp
1000471e:	4620      	mov	r0, r4
10004720:	4621      	mov	r1, r4
10004722:	4622      	mov	r2, r4
10004724:	4623      	mov	r3, r4
10004726:	4625      	mov	r5, r4
10004728:	4626      	mov	r6, r4
1000472a:	4627      	mov	r7, r4
1000472c:	46a0      	mov	r8, r4
1000472e:	46a1      	mov	r9, r4
10004730:	46a2      	mov	sl, r4
10004732:	46a3      	mov	fp, r4
10004734:	46a4      	mov	ip, r4
10004736:	f384 8c00 	msr	CPSR_fs, r4
1000473a:	47a4      	blxns	r4
1000473c:	f3ef 8c14 	mrs	ip, CONTROL
10004740:	f01c 0f08 	tst.w	ip, #8
10004744:	bf18      	it	ne
10004746:	eeb0 0a40 	vmovne.f32	s0, s0
1000474a:	ec3d 0a00 	vlldm	sp
1000474e:	b022      	add	sp, #136	@ 0x88
10004750:	e8bd 0ff0 	ldmia.w	sp!, {r4, r5, r6, r7, r8, r9, sl, fp}
10004754:	f04f 0000 	mov.w	r0, #0
10004758:	b004      	add	sp, #16
1000475a:	bd70      	pop	{r4, r5, r6, pc}
1000475c:	56202020 	.word	0x56202020
10004760:	4d2d4d32 	.word	0x4d2d4d32
10004764:	2b325350 	.word	0x2b325350
10004768:	6d654420 	.word	0x6d654420
1000476c:	2020206f 	.word	0x2020206f
10004770:	00000000 	.word	0x00000000
10004774:	63655320 	.word	0x63655320
10004778:	2f657275 	.word	0x2f657275
1000477c:	2d6e6f4e 	.word	0x2d6e6f4e
10004780:	75636553 	.word	0x75636553
10004784:	20206572 	.word	0x20206572
10004788:	00000000 	.word	0x00000000
1000478c:	77202020 	.word	0x77202020
10004790:	6b2e7777 	.word	0x6b2e7777
10004794:	2e6c6965 	.word	0x2e6c6965
10004798:	206d6f63 	.word	0x206d6f63
1000479c:	20202020 	.word	0x20202020
100047a0:	00000000 	.word	0x00000000
100047a4:	6f432020 	.word	0x6f432020
100047a8:	78657472 	.word	0x78657472
100047ac:	33334d2d 	.word	0x33334d2d
100047b0:	20202020 	.word	0x20202020
100047b4:	20202020 	.word	0x20202020
100047b8:	00000000 	.word	0x00000000
100047bc:	6e752020 	.word	0x6e752020
100047c0:	776f6e6b 	.word	0x776f6e6b
100047c4:	6f43206e 	.word	0x6f43206e
100047c8:	78657472 	.word	0x78657472
100047cc:	20204d2d 	.word	0x20204d2d
100047d0:	00000000 	.word	0x00000000
100047d4:	6f432020 	.word	0x6f432020
100047d8:	78657472 	.word	0x78657472
100047dc:	33324d2d 	.word	0x33324d2d
100047e0:	20202020 	.word	0x20202020
100047e4:	20202020 	.word	0x20202020
100047e8:	00000000 	.word	0x00000000

100047ec <mtb_debugMonitorHandler>:
100047ec:	b510      	push	{r4, lr}
100047ee:	a009      	add	r0, pc, #36	@ (adr r0, 10004814 <mtb_debugMonitorHandler+0x28>)
100047f0:	f7fb ff56 	bl	100006a0 <puts>
100047f4:	f240 0424 	movw	r4, #36	@ 0x24
100047f8:	f6c3 0400 	movt	r4, #14336	@ 0x3800
100047fc:	6820      	ldr	r0, [r4, #0]
100047fe:	6841      	ldr	r1, [r0, #4]
10004800:	f421 7100 	bic.w	r1, r1, #512	@ 0x200
10004804:	6041      	str	r1, [r0, #4]
10004806:	f000 f9a9 	bl	10004b5c <vMTB_sendBuffer>
1000480a:	6820      	ldr	r0, [r4, #0]
1000480c:	2100      	movs	r1, #0
1000480e:	6001      	str	r1, [r0, #0]
10004810:	bd10      	pop	{r4, pc}
10004812:	bf00      	nop
10004814:	474f4c5b 	.word	0x474f4c5b
10004818:	6544205d 	.word	0x6544205d
1000481c:	20677562 	.word	0x20677562
10004820:	696e6f4d 	.word	0x696e6f4d
10004824:	20726f74 	.word	0x20726f74
10004828:	646e6148 	.word	0x646e6148
1000482c:	0072656c 	.word	0x0072656c

10004830 <mtb_debugMonitorHandlerEmpty>:
10004830:	e7fe      	b.n	10004830 <mtb_debugMonitorHandlerEmpty>
	...

10004834 <mtb_exit>:
10004834:	b510      	push	{r4, lr}
10004836:	f240 0024 	movw	r0, #36	@ 0x24
1000483a:	b672      	cpsid	i
1000483c:	f6c3 0000 	movt	r0, #14336	@ 0x3800
10004840:	6804      	ldr	r4, [r0, #0]
10004842:	f44f 5180 	mov.w	r1, #4096	@ 0x1000
10004846:	68e0      	ldr	r0, [r4, #12]
10004848:	f7fb ff6c 	bl	10000724 <__aeabi_memclr4>
1000484c:	f240 0018 	movw	r0, #24
10004850:	f6c3 0000 	movt	r0, #14336	@ 0x3800
10004854:	6800      	ldr	r0, [r0, #0]
10004856:	f644 0131 	movw	r1, #18481	@ 0x4831
1000485a:	6880      	ldr	r0, [r0, #8]
1000485c:	f2c1 0100 	movt	r1, #4096	@ 0x1000
10004860:	6301      	str	r1, [r0, #48]	@ 0x30
10004862:	6860      	ldr	r0, [r4, #4]
10004864:	f64f 51df 	movw	r1, #64991	@ 0xfddf
10004868:	f6c7 71ff 	movt	r1, #32767	@ 0x7fff
1000486c:	4008      	ands	r0, r1
1000486e:	6060      	str	r0, [r4, #4]
10004870:	f240 0010 	movw	r0, #16
10004874:	f6c3 0000 	movt	r0, #14336	@ 0x3800
10004878:	6800      	ldr	r0, [r0, #0]
1000487a:	2100      	movs	r1, #0
1000487c:	6201      	str	r1, [r0, #32]
1000487e:	6301      	str	r1, [r0, #48]	@ 0x30
10004880:	6401      	str	r1, [r0, #64]	@ 0x40
10004882:	6501      	str	r1, [r0, #80]	@ 0x50
10004884:	6281      	str	r1, [r0, #40]	@ 0x28
10004886:	6381      	str	r1, [r0, #56]	@ 0x38
10004888:	6481      	str	r1, [r0, #72]	@ 0x48
1000488a:	6581      	str	r1, [r0, #88]	@ 0x58
1000488c:	b662      	cpsie	i
1000488e:	bd10      	pop	{r4, pc}

10004890 <mtb_init>:
10004890:	b5b0      	push	{r4, r5, r7, lr}
10004892:	f240 10c0 	movw	r0, #448	@ 0x1c0
10004896:	f6c3 0000 	movt	r0, #14336	@ 0x3800
1000489a:	2500      	movs	r5, #0
1000489c:	6005      	str	r5, [r0, #0]
1000489e:	a01c      	add	r0, pc, #112	@ (adr r0, 10004910 <mtb_init+0x80>)
100048a0:	f7fb fefe 	bl	100006a0 <puts>
100048a4:	f000 f852 	bl	1000494c <mtb_setup_DWT>
100048a8:	f246 242e 	movw	r4, #25134	@ 0x622e
100048ac:	f2c1 0400 	movt	r4, #4096	@ 0x1000
100048b0:	4620      	mov	r0, r4
100048b2:	f7fb fef5 	bl	100006a0 <puts>
100048b6:	4620      	mov	r0, r4
100048b8:	f7fb fef2 	bl	100006a0 <puts>
100048bc:	f240 0024 	movw	r0, #36	@ 0x24
100048c0:	f6c3 0000 	movt	r0, #14336	@ 0x3800
100048c4:	6804      	ldr	r4, [r0, #0]
100048c6:	f44f 5180 	mov.w	r1, #4096	@ 0x1000
100048ca:	68e0      	ldr	r0, [r4, #12]
100048cc:	f7fb ff2a 	bl	10000724 <__aeabi_memclr4>
100048d0:	e9d4 0104 	ldrd	r0, r1, [r4, #16]
100048d4:	6862      	ldr	r2, [r4, #4]
100048d6:	f040 0002 	orr.w	r0, r0, #2
100048da:	f041 0108 	orr.w	r1, r1, #8
100048de:	e9c4 0104 	strd	r0, r1, [r4, #16]
100048e2:	f640 70c3 	movw	r0, #4035	@ 0xfc3
100048e6:	f042 012f 	orr.w	r1, r2, #47	@ 0x2f
100048ea:	60a0      	str	r0, [r4, #8]
100048ec:	a00e      	add	r0, pc, #56	@ (adr r0, 10004928 <mtb_init+0x98>)
100048ee:	e9c4 5100 	strd	r5, r1, [r4]
100048f2:	f7fb fed5 	bl	100006a0 <puts>
100048f6:	f64e 5008 	movw	r0, #60680	@ 0xed08
100048fa:	f2ce 0000 	movt	r0, #57344	@ 0xe000
100048fe:	6801      	ldr	r1, [r0, #0]
10004900:	f244 72ed 	movw	r2, #18413	@ 0x47ed
10004904:	f2c1 0200 	movt	r2, #4096	@ 0x1000
10004908:	630a      	str	r2, [r1, #48]	@ 0x30
1000490a:	21e0      	movs	r1, #224	@ 0xe0
1000490c:	7601      	strb	r1, [r0, #24]
1000490e:	bdb0      	pop	{r4, r5, r7, pc}
10004910:	474f4c5b 	.word	0x474f4c5b
10004914:	6553205d 	.word	0x6553205d
10004918:	6e697474 	.word	0x6e697474
1000491c:	70752067 	.word	0x70752067
10004920:	54574420 	.word	0x54574420
10004924:	00000000 	.word	0x00000000
10004928:	474f4c5b 	.word	0x474f4c5b
1000492c:	6553205d 	.word	0x6553205d
10004930:	6e697474 	.word	0x6e697474
10004934:	70752067 	.word	0x70752067
10004938:	746e4920 	.word	0x746e4920
1000493c:	75727265 	.word	0x75727265
10004940:	48207470 	.word	0x48207470
10004944:	6c646e61 	.word	0x6c646e61
10004948:	00737265 	.word	0x00737265

1000494c <mtb_setup_DWT>:
1000494c:	b5b0      	push	{r4, r5, r7, lr}
1000494e:	f240 050c 	movw	r5, #12
10004952:	f6c3 0500 	movt	r5, #14336	@ 0x3800
10004956:	6828      	ldr	r0, [r5, #0]
10004958:	2403      	movs	r4, #3
1000495a:	68c1      	ldr	r1, [r0, #12]
1000495c:	f041 7180 	orr.w	r1, r1, #16777216	@ 0x1000000
10004960:	f441 3180 	orr.w	r1, r1, #65536	@ 0x10000
10004964:	60c1      	str	r1, [r0, #12]
10004966:	f240 0114 	movw	r1, #20
1000496a:	f6c3 0100 	movt	r1, #14336	@ 0x3800
1000496e:	6809      	ldr	r1, [r1, #0]
10004970:	f8d1 2e80 	ldr.w	r2, [r1, #3712]	@ 0xe80
10004974:	f042 0209 	orr.w	r2, r2, #9
10004978:	f8c1 2e80 	str.w	r2, [r1, #3712]	@ 0xe80
1000497c:	f240 0110 	movw	r1, #16
10004980:	f6c3 0100 	movt	r1, #14336	@ 0x3800
10004984:	680a      	ldr	r2, [r1, #0]
10004986:	f44f 1160 	mov.w	r1, #3670016	@ 0x380000
1000498a:	6211      	str	r1, [r2, #32]
1000498c:	f241 0128 	movw	r1, #4136	@ 0x1028
10004990:	f2ce 0100 	movt	r1, #57344	@ 0xe000
10004994:	f851 3c08 	ldr.w	r3, [r1, #-8]
10004998:	f023 0301 	bic.w	r3, r3, #1
1000499c:	f841 3c08 	str.w	r3, [r1, #-8]
100049a0:	f44f 0380 	mov.w	r3, #4194304	@ 0x400000
100049a4:	6313      	str	r3, [r2, #48]	@ 0x30
100049a6:	688b      	ldr	r3, [r1, #8]
100049a8:	f023 0301 	bic.w	r3, r3, #1
100049ac:	608b      	str	r3, [r1, #8]
100049ae:	f44f 1340 	mov.w	r3, #3145728	@ 0x300000
100049b2:	6413      	str	r3, [r2, #64]	@ 0x40
100049b4:	698b      	ldr	r3, [r1, #24]
100049b6:	f023 0301 	bic.w	r3, r3, #1
100049ba:	618b      	str	r3, [r1, #24]
100049bc:	f44f 1358 	mov.w	r3, #3538944	@ 0x360000
100049c0:	6513      	str	r3, [r2, #80]	@ 0x50
100049c2:	6a8a      	ldr	r2, [r1, #40]	@ 0x28
100049c4:	2302      	movs	r3, #2
100049c6:	f022 0201 	bic.w	r2, r2, #1
100049ca:	628a      	str	r2, [r1, #40]	@ 0x28
100049cc:	680a      	ldr	r2, [r1, #0]
100049ce:	f422 6240 	bic.w	r2, r2, #3072	@ 0xc00
100049d2:	600a      	str	r2, [r1, #0]
100049d4:	680a      	ldr	r2, [r1, #0]
100049d6:	f022 0230 	bic.w	r2, r2, #48	@ 0x30
100049da:	600a      	str	r2, [r1, #0]
100049dc:	680a      	ldr	r2, [r1, #0]
100049de:	f363 0203 	bfi	r2, r3, #0, #4
100049e2:	600a      	str	r2, [r1, #0]
100049e4:	690a      	ldr	r2, [r1, #16]
100049e6:	f422 6240 	bic.w	r2, r2, #3072	@ 0xc00
100049ea:	610a      	str	r2, [r1, #16]
100049ec:	690a      	ldr	r2, [r1, #16]
100049ee:	f042 0230 	orr.w	r2, r2, #48	@ 0x30
100049f2:	610a      	str	r2, [r1, #16]
100049f4:	690a      	ldr	r2, [r1, #16]
100049f6:	f364 0203 	bfi	r2, r4, #0, #4
100049fa:	610a      	str	r2, [r1, #16]
100049fc:	6a0a      	ldr	r2, [r1, #32]
100049fe:	f422 6240 	bic.w	r2, r2, #3072	@ 0xc00
10004a02:	620a      	str	r2, [r1, #32]
10004a04:	6a0a      	ldr	r2, [r1, #32]
10004a06:	f022 0230 	bic.w	r2, r2, #48	@ 0x30
10004a0a:	620a      	str	r2, [r1, #32]
10004a0c:	6a0a      	ldr	r2, [r1, #32]
10004a0e:	f363 0203 	bfi	r2, r3, #0, #4
10004a12:	620a      	str	r2, [r1, #32]
10004a14:	6b0a      	ldr	r2, [r1, #48]	@ 0x30
10004a16:	f422 6240 	bic.w	r2, r2, #3072	@ 0xc00
10004a1a:	630a      	str	r2, [r1, #48]	@ 0x30
10004a1c:	6b0a      	ldr	r2, [r1, #48]	@ 0x30
10004a1e:	f042 0230 	orr.w	r2, r2, #48	@ 0x30
10004a22:	630a      	str	r2, [r1, #48]	@ 0x30
10004a24:	6b0a      	ldr	r2, [r1, #48]	@ 0x30
10004a26:	f364 0203 	bfi	r2, r4, #0, #4
10004a2a:	630a      	str	r2, [r1, #48]	@ 0x30
10004a2c:	6801      	ldr	r1, [r0, #0]
10004a2e:	a005      	add	r0, pc, #20	@ (adr r0, 10004a44 <mtb_setup_DWT+0xf8>)
10004a30:	f7fb fd64 	bl	100004fc <__2printf>
10004a34:	6828      	ldr	r0, [r5, #0]
10004a36:	68c1      	ldr	r1, [r0, #12]
10004a38:	a00a      	add	r0, pc, #40	@ (adr r0, 10004a64 <mtb_setup_DWT+0x118>)
10004a3a:	e8bd 40b0 	ldmia.w	sp!, {r4, r5, r7, lr}
10004a3e:	f7fb bd5d 	b.w	100004fc <__2printf>
10004a42:	bf00      	nop
10004a44:	474f4c5b 	.word	0x474f4c5b
10004a48:	6f43205d 	.word	0x6f43205d
10004a4c:	65446572 	.word	0x65446572
10004a50:	5f677562 	.word	0x5f677562
10004a54:	48443e2d 	.word	0x48443e2d
10004a58:	20525343 	.word	0x20525343
10004a5c:	7825203a 	.word	0x7825203a
10004a60:	0000000a 	.word	0x0000000a
10004a64:	474f4c5b 	.word	0x474f4c5b
10004a68:	6f43205d 	.word	0x6f43205d
10004a6c:	65446572 	.word	0x65446572
10004a70:	5f677562 	.word	0x5f677562
10004a74:	45443e2d 	.word	0x45443e2d
10004a78:	2052434d 	.word	0x2052434d
10004a7c:	7825203a 	.word	0x7825203a
10004a80:	0000000a 	.word	0x0000000a

10004a84 <stdout_init>:
10004a84:	b510      	push	{r4, lr}
10004a86:	f644 4478 	movw	r4, #19576	@ 0x4c78
10004a8a:	f2c1 0400 	movt	r4, #4096	@ 0x1000
10004a8e:	68a1      	ldr	r1, [r4, #8]
10004a90:	2000      	movs	r0, #0
10004a92:	4788      	blx	r1
10004a94:	b948      	cbnz	r0, 10004aaa <stdout_init+0x26>
10004a96:	6921      	ldr	r1, [r4, #16]
10004a98:	2002      	movs	r0, #2
10004a9a:	4788      	blx	r1
10004a9c:	b928      	cbnz	r0, 10004aaa <stdout_init+0x26>
10004a9e:	6aa4      	ldr	r4, [r4, #40]	@ 0x28
10004aa0:	2001      	movs	r0, #1
10004aa2:	f44f 31e1 	mov.w	r1, #115200	@ 0x1c200
10004aa6:	47a0      	blx	r4
10004aa8:	b110      	cbz	r0, 10004ab0 <stdout_init+0x2c>
10004aaa:	f04f 30ff 	mov.w	r0, #4294967295
10004aae:	bd10      	pop	{r4, pc}
10004ab0:	2015      	movs	r0, #21
10004ab2:	2101      	movs	r1, #1
10004ab4:	47a0      	blx	r4
10004ab6:	2800      	cmp	r0, #0
10004ab8:	bf18      	it	ne
10004aba:	f04f 30ff 	movne.w	r0, #4294967295
10004abe:	bd10      	pop	{r4, pc}

10004ac0 <stdout_putbuffer>:
10004ac0:	e92d 47f0 	stmdb	sp!, {r4, r5, r6, r7, r8, r9, sl, lr}
10004ac4:	b082      	sub	sp, #8
10004ac6:	f644 4878 	movw	r8, #19576	@ 0x4c78
10004aca:	f2c1 0800 	movt	r8, #4096	@ 0x1000
10004ace:	4606      	mov	r6, r0
10004ad0:	2045      	movs	r0, #69	@ 0x45
10004ad2:	f8d8 7014 	ldr.w	r7, [r8, #20]
10004ad6:	4689      	mov	r9, r1
10004ad8:	f88d 0007 	strb.w	r0, [sp, #7]
10004adc:	f10d 0007 	add.w	r0, sp, #7
10004ae0:	2101      	movs	r1, #1
10004ae2:	4692      	mov	sl, r2
10004ae4:	47b8      	blx	r7
10004ae6:	b920      	cbnz	r0, 10004af2 <stdout_putbuffer+0x32>
10004ae8:	f8d8 4020 	ldr.w	r4, [r8, #32]
10004aec:	47a0      	blx	r4
10004aee:	2801      	cmp	r0, #1
10004af0:	d1fc      	bne.n	10004aec <stdout_putbuffer+0x2c>
10004af2:	f1b9 0f01 	cmp.w	r9, #1
10004af6:	db11      	blt.n	10004b1c <stdout_putbuffer+0x5c>
10004af8:	eb06 0489 	add.w	r4, r6, r9, lsl #2
10004afc:	f8d8 5020 	ldr.w	r5, [r8, #32]
10004b00:	4630      	mov	r0, r6
10004b02:	2104      	movs	r1, #4
10004b04:	47b8      	blx	r7
10004b06:	b938      	cbnz	r0, 10004b18 <stdout_putbuffer+0x58>
10004b08:	47a8      	blx	r5
10004b0a:	2804      	cmp	r0, #4
10004b0c:	d1fc      	bne.n	10004b08 <stdout_putbuffer+0x48>
10004b0e:	eb06 068a 	add.w	r6, r6, sl, lsl #2
10004b12:	42a6      	cmp	r6, r4
10004b14:	d3f4      	bcc.n	10004b00 <stdout_putbuffer+0x40>
10004b16:	e001      	b.n	10004b1c <stdout_putbuffer+0x5c>
10004b18:	f04f 39ff 	mov.w	r9, #4294967295
10004b1c:	4648      	mov	r0, r9
10004b1e:	b002      	add	sp, #8
10004b20:	e8bd 87f0 	ldmia.w	sp!, {r4, r5, r6, r7, r8, r9, sl, pc}

10004b24 <stdout_putchar>:
10004b24:	b5b0      	push	{r4, r5, r7, lr}
10004b26:	b082      	sub	sp, #8
10004b28:	f644 4578 	movw	r5, #19576	@ 0x4c78
10004b2c:	f2c1 0500 	movt	r5, #4096	@ 0x1000
10004b30:	696a      	ldr	r2, [r5, #20]
10004b32:	4604      	mov	r4, r0
10004b34:	f88d 0007 	strb.w	r0, [sp, #7]
10004b38:	f10d 0007 	add.w	r0, sp, #7
10004b3c:	2101      	movs	r1, #1
10004b3e:	4790      	blx	r2
10004b40:	2800      	cmp	r0, #0
10004b42:	bf1e      	ittt	ne
10004b44:	f04f 30ff 	movne.w	r0, #4294967295
10004b48:	b002      	addne	sp, #8
10004b4a:	bdb0      	popne	{r4, r5, r7, pc}
10004b4c:	6a2d      	ldr	r5, [r5, #32]
10004b4e:	bf00      	nop
10004b50:	47a8      	blx	r5
10004b52:	2801      	cmp	r0, #1
10004b54:	d1fc      	bne.n	10004b50 <stdout_putchar+0x2c>
10004b56:	4620      	mov	r0, r4
10004b58:	b002      	add	sp, #8
10004b5a:	bdb0      	pop	{r4, r5, r7, pc}

10004b5c <vMTB_sendBuffer>:
10004b5c:	b5f0      	push	{r4, r5, r6, r7, lr}
10004b5e:	b081      	sub	sp, #4
10004b60:	a018      	add	r0, pc, #96	@ (adr r0, 10004bc4 <vMTB_sendBuffer+0x68>)
10004b62:	f7fb fd9d 	bl	100006a0 <puts>
10004b66:	f240 0524 	movw	r5, #36	@ 0x24
10004b6a:	f6c3 0500 	movt	r5, #14336	@ 0x3800
10004b6e:	6828      	ldr	r0, [r5, #0]
10004b70:	f240 12c0 	movw	r2, #448	@ 0x1c0
10004b74:	f6c3 0200 	movt	r2, #14336	@ 0x3800
10004b78:	6800      	ldr	r0, [r0, #0]
10004b7a:	6811      	ldr	r1, [r2, #0]
10004b7c:	4401      	add	r1, r0
10004b7e:	a018      	add	r0, pc, #96	@ (adr r0, 10004be0 <vMTB_sendBuffer+0x84>)
10004b80:	6011      	str	r1, [r2, #0]
10004b82:	f7fb fcbb 	bl	100004fc <__2printf>
10004b86:	6828      	ldr	r0, [r5, #0]
10004b88:	6801      	ldr	r1, [r0, #0]
10004b8a:	a01b      	add	r0, pc, #108	@ (adr r0, 10004bf8 <vMTB_sendBuffer+0x9c>)
10004b8c:	f7fb fcb6 	bl	100004fc <__2printf>
10004b90:	6828      	ldr	r0, [r5, #0]
10004b92:	6801      	ldr	r1, [r0, #0]
10004b94:	2904      	cmp	r1, #4
10004b96:	d30e      	bcc.n	10004bb6 <vMTB_sendBuffer+0x5a>
10004b98:	68c6      	ldr	r6, [r0, #12]
10004b9a:	2700      	movs	r7, #0
10004b9c:	a417      	add	r4, pc, #92	@ (adr r4, 10004bfc <vMTB_sendBuffer+0xa0>)
10004b9e:	bf00      	nop
10004ba0:	f856 1027 	ldr.w	r1, [r6, r7, lsl #2]
10004ba4:	4620      	mov	r0, r4
10004ba6:	f7fb fca9 	bl	100004fc <__2printf>
10004baa:	6828      	ldr	r0, [r5, #0]
10004bac:	3701      	adds	r7, #1
10004bae:	6800      	ldr	r0, [r0, #0]
10004bb0:	ebb7 0f90 	cmp.w	r7, r0, lsr #2
10004bb4:	d3f4      	bcc.n	10004ba0 <vMTB_sendBuffer+0x44>
10004bb6:	a012      	add	r0, pc, #72	@ (adr r0, 10004c00 <vMTB_sendBuffer+0xa4>)
10004bb8:	b001      	add	sp, #4
10004bba:	e8bd 40f0 	ldmia.w	sp!, {r4, r5, r6, r7, lr}
10004bbe:	f7fb bd6f 	b.w	100006a0 <puts>
10004bc2:	bf00      	nop
10004bc4:	474f4c5b 	.word	0x474f4c5b
10004bc8:	6553205d 	.word	0x6553205d
10004bcc:	6e69646e 	.word	0x6e69646e
10004bd0:	544d2067 	.word	0x544d2067
10004bd4:	75422042 	.word	0x75422042
10004bd8:	72656666 	.word	0x72656666
10004bdc:	00000000 	.word	0x00000000
10004be0:	474f4c5b 	.word	0x474f4c5b
10004be4:	6f4c205d 	.word	0x6f4c205d
10004be8:	6f432067 	.word	0x6f432067
10004bec:	65746e75 	.word	0x65746e75
10004bf0:	203a2072 	.word	0x203a2072
10004bf4:	000a6425 	.word	0x000a6425
10004bf8:	000a6425 	.word	0x000a6425
10004bfc:	003b7825 	.word	0x003b7825
10004c00:	4f4c5b0a 	.word	0x4f4c5b0a
10004c04:	4d205d47 	.word	0x4d205d47
10004c08:	42204254 	.word	0x42204254
10004c0c:	65666675 	.word	0x65666675
10004c10:	65532072 	.word	0x65532072
10004c14:	0000746e 	.word	0x0000746e

10004c18 <fputc>:
10004c18:	688a      	ldr	r2, [r1, #8]
10004c1a:	2a00      	cmp	r2, #0
10004c1c:	dc02      	bgt.n	10004c24 <fputc+0xc>
10004c1e:	2200      	movs	r2, #0
10004c20:	f7fb be86 	b.w	10000930 <__flsbuf>
10004c24:	1e52      	subs	r2, r2, #1
10004c26:	608a      	str	r2, [r1, #8]
10004c28:	684a      	ldr	r2, [r1, #4]
10004c2a:	b2c0      	uxtb	r0, r0
10004c2c:	1c53      	adds	r3, r2, #1
10004c2e:	604b      	str	r3, [r1, #4]
10004c30:	7010      	strb	r0, [r2, #0]
10004c32:	4770      	bx	lr

10004c34 <_fp_init>:
10004c34:	eef1 0a10 	vmrs	r0, fpscr
10004c38:	f64f 71ff 	movw	r1, #65535	@ 0xffff
10004c3c:	f2c0 31c0 	movt	r1, #960	@ 0x3c0
10004c40:	ea20 0001 	bic.w	r0, r0, r1
10004c44:	f040 7040 	orr.w	r0, r0, #50331648	@ 0x3000000
10004c48:	eee1 0a10 	vmsr	fpscr, r0

10004c4c <__fplib_config_fpu_vfp>:
10004c4c:	4770      	bx	lr

10004c4e <uc_hextab>:
10004c4e:	3130 3332 3534 3736 3938 4241 4443 4645     0123456789ABCDEF
10004c5e:	3040 0058                                   @0X.

10004c62 <lc_hextab>:
10004c62:	3130 3332 3534 3736 3938 6261 6463 6665     0123456789abcdef
10004c72:	3040 0078 0000                              @0x...

10004c78 <Driver_USART0>:
10004c78:	41e5 1000 3f91 1000 3fd1 1000 41bd 1000     .A...?...?...A..
10004c88:	4021 1000 4139 1000 40c5 1000 41b5 1000     !@..9A...@...A..
10004c98:	3fc5 1000 3f9d 1000 3e55 1000 3fa9 1000     .?...?..U>...?..
10004ca8:	41ad 1000 3f99 1000                         .A...?..

10004cb0 <Font_16x24_h>:
	...
10004ce0:	0000 0180 0180 0180 0180 0180 0180 0180     ................
10004cf0:	0180 0180 0180 0180 0180 0180 0000 0000     ................
10004d00:	0180 0180 0000 0000 0000 0000 0000 0000     ................
10004d10:	0000 0000 00cc 00cc 00cc 00cc 00cc 00cc     ................
	...
10004d4c:	0c60 0c60 0c60 0630 0630 1ffe 1ffe 0630     `.`.`.0.0.....0.
10004d5c:	0738 0318 1ffe 1ffe 0318 0318 018c 018c     8...............
10004d6c:	018c 0000 0000 0080 03e0 0ff8 0e9c 1c8c     ................
10004d7c:	188c 008c 0098 01f8 07e0 0e80 1c80 188c     ................
10004d8c:	188c 189c 0cb8 0ff0 03e0 0080 0080 0000     ................
	...
10004da4:	0000 180e 0c1b 0c11 0611 0611 0311 0311     ................
10004db4:	019b 018e 38c0 6cc0 4460 4460 4430 4430     .....8.l`D`D0D0D
10004dc4:	4418 6c18 380c 0000 0000 0000 0000 01e0     .D.l.8..........
10004dd4:	03f0 0738 0618 0618 0330 01f0 00f0 00f8     ..8.....0.......
10004de4:	319c 330e 1e06 1c06 1c06 3f06 73fc 21f0     .1.3.......?.s.!
	...
10004e04:	000c 000c 000c 000c 000c 000c 0000 0000     ................
	...
10004e30:	0000 0200 0300 0180 00c0 00c0 0060 0060     ............`.`.
10004e40:	0030 0030 0030 0030 0030 0030 0030 0030     0.0.0.0.0.0.0.0.
10004e50:	0060 0060 00c0 00c0 0180 0300 0200 0000     `.`.............
10004e60:	0000 0020 0060 00c0 0180 0180 0300 0300     .. .`...........
10004e70:	0600 0600 0600 0600 0600 0600 0600 0600     ................
10004e80:	0300 0300 0180 0180 00c0 0060 0020 0000     ..........`. ...
	...
10004e9c:	00c0 00c0 06d8 07f8 01e0 0330 0738 0000     ..........0.8...
	...
10004ecc:	0180 0180 0180 0180 0180 3ffc 3ffc 0180     ...........?.?..
10004edc:	0180 0180 0180 0180 0000 0000 0000 0000     ................
	...
10004f10:	0000 0180 0180 0100 0100 0080 0000 0000     ................
	...
10004f38:	07e0 07e0 0000 0000 0000 0000 0000 0000     ................
	...
10004f70:	0000 00c0 00c0 0000 0000 0000 0000 0000     ................
10004f80:	0000 0c00 0c00 0600 0600 0600 0300 0300     ................
10004f90:	0300 0380 0180 0180 0180 00c0 00c0 00c0     ................
10004fa0:	0060 0060 0000 0000 0000 0000 0000 0000     `.`.............
10004fb0:	0000 03e0 07f0 0e38 0c18 180c 180c 180c     ......8.........
10004fc0:	180c 180c 180c 180c 180c 180c 0c18 0e38     ..............8.
10004fd0:	07f0 03e0 0000 0000 0000 0000 0000 0000     ................
10004fe0:	0000 0100 0180 01c0 01f0 0198 0188 0180     ................
10004ff0:	0180 0180 0180 0180 0180 0180 0180 0180     ................
10005000:	0180 0180 0000 0000 0000 0000 0000 0000     ................
10005010:	0000 03e0 0ff8 0c18 180c 180c 1800 1800     ................
10005020:	0c00 0600 0300 0180 00c0 0060 0030 0018     ..........`.0...
10005030:	1ffc 1ffc 0000 0000 0000 0000 0000 0000     ................
10005040:	0000 01e0 07f8 0e18 0c0c 0c0c 0c00 0600     ................
10005050:	03c0 07c0 0c00 1800 1800 180c 180c 0c18     ................
10005060:	07f8 03e0 0000 0000 0000 0000 0000 0000     ................
10005070:	0000 0c00 0e00 0f00 0f00 0d80 0cc0 0c60     ..............`.
10005080:	0c60 0c30 0c18 0c0c 3ffc 3ffc 0c00 0c00     `.0......?.?....
10005090:	0c00 0c00 0000 0000 0000 0000 0000 0000     ................
100050a0:	0000 0ff8 0ff8 0018 0018 000c 03ec 07fc     ................
100050b0:	0e1c 1c00 1800 1800 1800 180c 0c1c 0e18     ................
100050c0:	07f8 03e0 0000 0000 0000 0000 0000 0000     ................
100050d0:	0000 07c0 0ff0 1c38 1818 0018 000c 03cc     ......8.........
100050e0:	0fec 0e3c 1c1c 180c 180c 180c 1c18 0e38     ..<...........8.
100050f0:	07f0 03e0 0000 0000 0000 0000 0000 0000     ................
10005100:	0000 1ffc 1ffc 0c00 0600 0600 0300 0380     ................
10005110:	0180 01c0 00c0 00e0 0060 0060 0070 0030     ........`.`.p.0.
10005120:	0030 0030 0000 0000 0000 0000 0000 0000     0.0.............
10005130:	0000 03e0 07f0 0e38 0c18 0c18 0c18 0638     ......8.......8.
10005140:	07f0 07f0 0c18 180c 180c 180c 180c 0c38     ..............8.
10005150:	0ff8 03e0 0000 0000 0000 0000 0000 0000     ................
10005160:	0000 03e0 07f0 0e38 0c1c 180c 180c 180c     ......8.........
10005170:	1c1c 1e38 1bf8 19e0 1800 0c00 0c00 0e1c     ..8.............
10005180:	07f8 01f0 0000 0000 0000 0000 0000 0000     ................
	...
1000519c:	0180 0180 0000 0000 0000 0000 0000 0000     ................
100051ac:	0000 0000 0180 0180 0000 0000 0000 0000     ................
	...
100051cc:	0180 0180 0000 0000 0000 0000 0000 0000     ................
100051dc:	0000 0000 0180 0180 0100 0100 0080 0000     ................
	...
10005200:	1000 1c00 0f80 03e0 00f8 0018 00f8 03e0     ................
10005210:	0f80 1c00 1000 0000 0000 0000 0000 0000     ................
	...
10005230:	1ff8 0000 0000 0000 1ff8 0000 0000 0000     ................
	...
10005260:	0008 0038 01f0 07c0 1f00 1800 1f00 07c0     ..8.............
10005270:	01f0 0038 0008 0000 0000 0000 0000 0000     ..8.............
10005280:	0000 03e0 0ff8 0c18 180c 180c 1800 0c00     ................
10005290:	0600 0300 0180 00c0 00c0 00c0 0000 0000     ................
100052a0:	00c0 00c0 0000 0000 0000 0000 0000 0000     ................
100052b0:	0000 0000 07e0 1818 2004 29c2 4a22 4411     ......... .)"J.D
100052c0:	4409 4409 4409 2209 1311 0ce2 4002 2004     .D.D.D.".....@. 
100052d0:	1818 07e0 0000 0000 0000 0000 0000 0000     ................
100052e0:	0000 0380 0380 06c0 06c0 06c0 0c60 0c60     ............`.`.
100052f0:	1830 1830 1830 3ff8 3ff8 701c 600c 600c     0.0.0..?.?.p.`.`
10005300:	c006 c006 0000 0000 0000 0000 0000 0000     ................
10005310:	0000 03fc 0ffc 0c0c 180c 180c 180c 0c0c     ................
10005320:	07fc 0ffc 180c 300c 300c 300c 300c 180c     .......0.0.0.0..
10005330:	1ffc 07fc 0000 0000 0000 0000 0000 0000     ................
10005340:	0000 07c0 1ff0 3838 301c 700c 6006 0006     ......88.0.p.`..
10005350:	0006 0006 0006 0006 0006 6006 700c 301c     ...........`.p.0
10005360:	1ff0 07e0 0000 0000 0000 0000 0000 0000     ................
10005370:	0000 03fe 0ffe 0e06 1806 1806 3006 3006     .............0.0
10005380:	3006 3006 3006 3006 3006 1806 1806 0e06     .0.0.0.0.0......
10005390:	0ffe 03fe 0000 0000 0000 0000 0000 0000     ................
100053a0:	0000 3ffc 3ffc 000c 000c 000c 000c 000c     ...?.?..........
100053b0:	1ffc 1ffc 000c 000c 000c 000c 000c 000c     ................
100053c0:	3ffc 3ffc 0000 0000 0000 0000 0000 0000     .?.?............
100053d0:	0000 3ff8 3ff8 0018 0018 0018 0018 0018     ...?.?..........
100053e0:	1ff8 1ff8 0018 0018 0018 0018 0018 0018     ................
100053f0:	0018 0018 0000 0000 0000 0000 0000 0000     ................
10005400:	0000 0fe0 3ff8 783c 600e e006 c007 0003     .....?<x.`......
10005410:	0003 fe03 fe03 c003 c007 c006 c00e f03c     ..............<.
10005420:	3ff8 0fe0 0000 0000 0000 0000 0000 0000     .?..............
10005430:	0000 300c 300c 300c 300c 300c 300c 300c     ...0.0.0.0.0.0.0
10005440:	3ffc 3ffc 300c 300c 300c 300c 300c 300c     .?.?.0.0.0.0.0.0
10005450:	300c 300c 0000 0000 0000 0000 0000 0000     .0.0............
10005460:	0000 0180 0180 0180 0180 0180 0180 0180     ................
10005470:	0180 0180 0180 0180 0180 0180 0180 0180     ................
10005480:	0180 0180 0000 0000 0000 0000 0000 0000     ................
10005490:	0000 0600 0600 0600 0600 0600 0600 0600     ................
100054a0:	0600 0600 0600 0600 0600 0618 0618 0738     ..............8.
100054b0:	03f0 01e0 0000 0000 0000 0000 0000 0000     ................
100054c0:	0000 3006 1806 0c06 0606 0306 0186 00c6     ...0............
100054d0:	0066 0076 00de 018e 0306 0606 0c06 1806     f.v.............
100054e0:	3006 6006 0000 0000 0000 0000 0000 0000     .0.`............
100054f0:	0000 0018 0018 0018 0018 0018 0018 0018     ................
10005500:	0018 0018 0018 0018 0018 0018 0018 0018     ................
10005510:	1ff8 1ff8 0000 0000 0000 0000 0000 0000     ................
10005520:	0000 e00e f01e f01e f01e d836 d836 d836     ..........6.6.6.
10005530:	d836 cc66 cc66 cc66 c6c6 c6c6 c6c6 c6c6     6.f.f.f.........
10005540:	c386 c386 0000 0000 0000 0000 0000 0000     ................
10005550:	0000 300c 301c 303c 303c 306c 306c 30cc     ...0.0<0<0l0l0.0
10005560:	30cc 318c 330c 330c 360c 360c 3c0c 3c0c     .0.1.3.3.6.6.<.<
10005570:	380c 300c 0000 0000 0000 0000 0000 0000     .8.0............
10005580:	0000 07e0 1ff8 381c 700e 6006 c003 c003     .......8.p.`....
10005590:	c003 c003 c003 c003 c003 6006 700e 381c     ...........`.p.8
100055a0:	1ff8 07e0 0000 0000 0000 0000 0000 0000     ................
100055b0:	0000 0ffc 1ffc 380c 300c 300c 300c 300c     .......8.0.0.0.0
100055c0:	180c 1ffc 07fc 000c 000c 000c 000c 000c     ................
100055d0:	000c 000c 0000 0000 0000 0000 0000 0000     ................
100055e0:	0000 07e0 1ff8 381c 700e 6006 e003 c003     .......8.p.`....
100055f0:	c003 c003 c003 c003 e007 6306 3f0e 3c1c     ...........c.?.<
10005600:	3ff8 f7e0 c000 0000 0000 0000 0000 0000     .?..............
10005610:	0000 0ffe 1ffe 3806 3006 3006 3006 3806     .......8.0.0.0.8
10005620:	1ffe 07fe 0306 0606 0c06 1806 1806 3006     ...............0
10005630:	3006 6006 0000 0000 0000 0000 0000 0000     .0.`............
10005640:	0000 03e0 0ff8 0c1c 180c 180c 000c 001c     ................
10005650:	03f8 0fe0 1e00 3800 3006 3006 300e 1c1c     .......8.0.0.0..
10005660:	0ff8 07e0 0000 0000 0000 0000 0000 0000     ................
10005670:	0000 7ffe 7ffe 0180 0180 0180 0180 0180     ................
10005680:	0180 0180 0180 0180 0180 0180 0180 0180     ................
10005690:	0180 0180 0000 0000 0000 0000 0000 0000     ................
100056a0:	0000 300c 300c 300c 300c 300c 300c 300c     ...0.0.0.0.0.0.0
100056b0:	300c 300c 300c 300c 300c 300c 300c 1818     .0.0.0.0.0.0.0..
100056c0:	1ff8 07e0 0000 0000 0000 0000 0000 0000     ................
100056d0:	0000 6003 3006 3006 3006 180c 180c 180c     ...`.0.0.0......
100056e0:	0c18 0c18 0e38 0630 0630 0770 0360 0360     ....8.0.0.p.`.`.
100056f0:	01c0 01c0 0000 0000 0000 0000 0000 0000     ................
10005700:	0000 6003 61c3 61c3 61c3 3366 3366 3366     ...`.a.a.af3f3f3
10005710:	3366 3366 3366 1b6c 1b6c 1b6c 1a2c 1e3c     f3f3f3l.l.l.,.<.
10005720:	0e38 0e38 0000 0000 0000 0000 0000 0000     8.8.............
10005730:	0000 e00f 700c 3018 1830 0c70 0e60 07c0     .....p.00.p.`...
10005740:	0380 0380 03c0 06e0 0c70 1c30 1818 300c     ........p.0....0
10005750:	600e e007 0000 0000 0000 0000 0000 0000     .`..............
10005760:	0000 c003 6006 300c 381c 1838 0c30 0660     .....`.0.88.0.`.
10005770:	07e0 03c0 0180 0180 0180 0180 0180 0180     ................
10005780:	0180 0180 0000 0000 0000 0000 0000 0000     ................
10005790:	0000 7ffc 7ffc 6000 3000 1800 0c00 0600     .......`.0......
100057a0:	0300 0180 00c0 0060 0030 0018 000c 0006     ......`.0.......
100057b0:	7ffe 7ffe 0000 0000 0000 0000 0000 0000     ................
100057c0:	0000 03e0 03e0 0060 0060 0060 0060 0060     ......`.`.`.`.`.
100057d0:	0060 0060 0060 0060 0060 0060 0060 0060     `.`.`.`.`.`.`.`.
100057e0:	0060 0060 0060 0060 0060 03e0 03e0 0000     `.`.`.`.`.......
100057f0:	0000 0030 0030 0060 0060 0060 00c0 00c0     ..0.0.`.`.`.....
10005800:	00c0 01c0 0180 0180 0180 0300 0300 0300     ................
10005810:	0600 0600 0000 0000 0000 0000 0000 0000     ................
10005820:	0000 03e0 03e0 0300 0300 0300 0300 0300     ................
10005830:	0300 0300 0300 0300 0300 0300 0300 0300     ................
10005840:	0300 0300 0300 0300 0300 03e0 03e0 0000     ................
10005850:	0000 0000 01c0 01c0 0360 0360 0360 0630     ........`.`.`.0.
10005860:	0630 0c18 0c18 0000 0000 0000 0000 0000     0...............
	...
100058a0:	0000 ffff ffff 0000 0000 0000 0000 0000     ................
100058b0:	0000 000c 000c 000c 000c 000c 000c 0000     ................
	...
100058ec:	03f0 07f8 0c1c 0c0c 0f00 0ff0 0cf8 0c0c     ................
100058fc:	0c0c 0f1c 0ff8 18f0 0000 0000 0000 0000     ................
1000590c:	0000 0000 0000 0018 0018 0018 0018 0018     ................
1000591c:	03d8 0ff8 0c38 1818 1818 1818 1818 1818     ....8...........
1000592c:	1818 0c38 0ff8 03d8 0000 0000 0000 0000     ..8.............
	...
1000594c:	03c0 07f0 0e30 0c18 0018 0018 0018 0018     ....0...........
1000595c:	0c18 0e30 07f0 03c0 0000 0000 0000 0000     ..0.............
1000596c:	0000 0000 0000 1800 1800 1800 1800 1800     ................
1000597c:	1bc0 1ff0 1c30 1818 1818 1818 1818 1818     ....0...........
1000598c:	1818 1c30 1ff0 1bc0 0000 0000 0000 0000     ..0.............
	...
100059ac:	03c0 0ff0 0c30 1818 1ff8 1ff8 0018 0018     ....0...........
100059bc:	1838 1c30 0ff0 07c0 0000 0000 0000 0000     8.0.............
100059cc:	0000 0000 0000 0f80 0fc0 00c0 00c0 00c0     ................
100059dc:	07f0 07f0 00c0 00c0 00c0 00c0 00c0 00c0     ................
100059ec:	00c0 00c0 00c0 00c0 0000 0000 0000 0000     ................
	...
10005a0c:	0de0 0ff8 0e18 0c0c 0c0c 0c0c 0c0c 0c0c     ................
10005a1c:	0c0c 0e18 0ff8 0de0 0c00 0c0c 061c 07f8     ................
10005a2c:	01f0 0000 0000 0018 0018 0018 0018 0018     ................
10005a3c:	07d8 0ff8 1c38 1818 1818 1818 1818 1818     ....8...........
10005a4c:	1818 1818 1818 1818 0000 0000 0000 0000     ................
10005a5c:	0000 0000 0000 00c0 00c0 0000 0000 0000     ................
10005a6c:	00c0 00c0 00c0 00c0 00c0 00c0 00c0 00c0     ................
10005a7c:	00c0 00c0 00c0 00c0 0000 0000 0000 0000     ................
10005a8c:	0000 0000 0000 00c0 00c0 0000 0000 0000     ................
10005a9c:	00c0 00c0 00c0 00c0 00c0 00c0 00c0 00c0     ................
10005aac:	00c0 00c0 00c0 00c0 00c0 00c0 00c0 00f8     ................
10005abc:	0078 0000 0000 000c 000c 000c 000c 000c     x...............
10005acc:	0c0c 060c 030c 018c 00cc 006c 00fc 019c     ..........l.....
10005adc:	038c 030c 060c 0c0c 0000 0000 0000 0000     ................
10005aec:	0000 0000 0000 00c0 00c0 00c0 00c0 00c0     ................
10005afc:	00c0 00c0 00c0 00c0 00c0 00c0 00c0 00c0     ................
10005b0c:	00c0 00c0 00c0 00c0 0000 0000 0000 0000     ................
	...
10005b2c:	3c7c 7eff e3c7 c183 c183 c183 c183 c183     |<.~............
10005b3c:	c183 c183 c183 c183 0000 0000 0000 0000     ................
	...
10005b5c:	0798 0ff8 1c38 1818 1818 1818 1818 1818     ....8...........
10005b6c:	1818 1818 1818 1818 0000 0000 0000 0000     ................
	...
10005b8c:	03c0 0ff0 0c30 1818 1818 1818 1818 1818     ....0...........
10005b9c:	1818 0c30 0ff0 03c0 0000 0000 0000 0000     ..0.............
	...
10005bbc:	03d8 0ff8 0c38 1818 1818 1818 1818 1818     ....8...........
10005bcc:	1818 0c38 0ff8 03d8 0018 0018 0018 0018     ..8.............
10005bdc:	0018 0000 0000 0000 0000 0000 0000 0000     ................
10005bec:	1bc0 1ff0 1c30 1818 1818 1818 1818 1818     ....0...........
10005bfc:	1818 1c30 1ff0 1bc0 1800 1800 1800 1800     ..0.............
10005c0c:	1800 0000 0000 0000 0000 0000 0000 0000     ................
10005c1c:	07b0 03f0 0070 0030 0030 0030 0030 0030     ....p.0.0.0.0.0.
10005c2c:	0030 0030 0030 0030 0000 0000 0000 0000     0.0.0.0.........
	...
10005c4c:	03e0 03f0 0e38 0c18 0038 03f0 07c0 0c00     ....8...8.......
10005c5c:	0c18 0e38 07f0 03e0 0000 0000 0000 0000     ..8.............
	...
10005c74:	0080 00c0 00c0 00c0 07f0 07f0 00c0 00c0     ................
10005c84:	00c0 00c0 00c0 00c0 00c0 00c0 07c0 0780     ................
	...
10005cac:	1818 1818 1818 1818 1818 1818 1818 1818     ................
10005cbc:	1818 1c38 1ff0 19e0 0000 0000 0000 0000     ..8.............
	...
10005cdc:	180c 0c18 0c18 0c18 0630 0630 0630 0360     ........0.0.0.`.
10005cec:	0360 0360 01c0 01c0 0000 0000 0000 0000     `.`.............
	...
10005d0c:	41c1 41c1 61c3 6363 6363 6363 3636 3636     .A.A.acccccc6666
10005d1c:	3636 1c1c 1c1c 1c1c 0000 0000 0000 0000     66..............
	...
10005d3c:	381c 1c38 0c30 0660 03c0 03c0 03c0 03c0     .88.0.`.........
10005d4c:	0660 0c30 1c38 381c 0000 0000 0000 0000     `.0.8..8........
	...
10005d6c:	3018 1830 1830 1870 0c60 0c60 0ce0 06c0     .00.0.p.`.`.....
10005d7c:	06c0 0380 0380 0380 0180 0180 01c0 00f0     ................
10005d8c:	0070 0000 0000 0000 0000 0000 0000 0000     p...............
10005d9c:	1ffc 1ffc 0c00 0600 0300 0180 00c0 0060     ..............`.
10005dac:	0030 0018 1ffc 1ffc 0000 0000 0000 0000     0...............
10005dbc:	0000 0000 0000 0300 0180 00c0 00c0 00c0     ................
10005dcc:	00c0 00c0 00c0 0060 0060 0030 0060 0040     ......`.`.0.`.@.
10005ddc:	00c0 00c0 00c0 00c0 00c0 00c0 0180 0300     ................
10005dec:	0000 0000 0000 0180 0180 0180 0180 0180     ................
10005dfc:	0180 0180 0180 0180 0180 0180 0180 0180     ................
10005e0c:	0180 0180 0180 0180 0180 0180 0180 0180     ................
10005e1c:	0180 0000 0000 0060 00c0 01c0 0180 0180     ......`.........
10005e2c:	0180 0180 0180 0300 0300 0600 0300 0100     ................
10005e3c:	0180 0180 0180 0180 0180 0180 00c0 0060     ..............`.
	...
10005e60:	10f0 1ff8 0f08 0000 0000 0000 0000 0000     ................
	...
10005eb8:	0000 03c0 0c30 1008 2004 2004 4002 4002     ....0.... . .@.@
10005ec8:	4002 4002 4002 2004 2004 1008 0c30 03c0     .@.@.@. . ..0...
	...
10005ee8:	0000 03c0 0ff0 1ff8 3ffc 3ffc 7ffe 7ffe     .........?.?....
10005ef8:	7ffe 7ffe 7ffe 3ffc 3ffc 1ff8 0ff0 03c0     .......?.?......
	...
10005f1c:	0000 07e0 0ff0 1818 1818 1818 1818 1818     ................
10005f2c:	1818 0ff0 07e0 0000 0000 0000 0000 0000     ................
	...
10005f4c:	0000 07e0 0ff0 1ff8 1ff8 1ff8 1ff8 1ff8     ................
10005f5c:	1ff8 0ff0 07e0 0000 0000 0000 0000 0000     ................
	...
10005f88:	0180 03c0 0660 0c30 1818 1818 1ff8 1ff8     ....`.0.........
	...
10005fb8:	0180 03c0 07e0 0ff0 1ff8 1ff8 1ff8 1ff8     ................
	...
10005fd8:	1ff8 1ff8 1818 1818 0c30 0660 03c0 0180     ........0.`.....
	...
10006008:	1ff8 1ff8 1ff8 1ff8 0ff0 07e0 03c0 0180     ................
	...
1000603c:	0000 01e0 01f0 0198 018c 0186 0186 018c     ................
1000604c:	0198 01f0 01e0 0000 0000 0000 0000 0000     ................
	...
1000606c:	0000 01e0 01f0 01f8 01fc 01fe 01fe 01fc     ................
1000607c:	01f8 01f0 01e0 0000 0000 0000 0000 0000     ................
	...
1000609c:	0000 0780 0f80 1980 3180 6180 6180 3180     .........1.a.a.1
100060ac:	1980 0f80 0780 0000 0000 0000 0000 0000     ................
	...
100060cc:	0000 0780 0f80 1f80 3f80 7f80 7f80 3f80     .........?.....?
100060dc:	1f80 0f80 0780 0000 0000 0000 0000 0000     ................
100060ec:	0000 0000 0000 01c0 0220 0220 0140 0630     ........ . .@.0.
100060fc:	0808 0808 0808 0808 0808 0808 0808 0220     .............. .
1000610c:	0220 0220 0220 0220 0220 0220 0220 0220      . . . . . . . .
1000611c:	0220 0000 0000 01c0 03e0 03e0 01c0 07f0      ...............
1000612c:	0dd8 0dd8 0dd8 0dd8 0dd8 0dd8 0dd8 0360     ..............`.
1000613c:	0360 0360 0360 0360 0360 0360 0360 0360     `.`.`.`.`.`.`.`.
1000614c:	0360 0000 0000 01c0 0220 0220 0140 0630     `....... . .@.0.
1000615c:	0808 0808 0808 1004 2002 2002 0140 0220     ......... . @. .
1000616c:	0220 0410 0808 0808 1004 1004 2004 4004      ............ .@
1000617c:	0000 0000 0000 01c0 03e0 03e0 01c0 07f0     ................
1000618c:	0dd8 0dd8 0dd8 19cc 31c6 61c2 01c0 0360     .........1.a..`.
1000619c:	0360 0670 0c38 0c18 180c 180c 300c 600c     `.p.8........0.`
100061ac:	0000 0000                                   ....

100061b0 <GLCD_Font_16x24>:
100061b0:	0010 0018 0020 0000 0070 0000 4cb0 1000     .... ...p....L..

100061c0 <__stderr_name>:
100061c0:	533a 4454 5245 0052                         :STDERR.

100061c8 <__stdin_name>:
100061c8:	533a 4454 4e49                               :STDIN.

100061cf <__stdout_name>:
100061cf:	533a 4454 554f 0054                         :STDOUT.

100061d7 <.L.str.20>:
100061d7:	4c5b 474f 205d 5744 5f54 4f43 504d 2030     [LOG] DWT_COMP0 
100061e7:	203a 7825 000a                              : %x..

100061ed <.L.str.21>:
100061ed:	4c5b 474f 205d 5744 5f54 4f43 504d 2031     [LOG] DWT_COMP1 
100061fd:	203a 7825 000a                              : %x..

10006203 <.L.str.22>:
10006203:	4c5b 474f 205d 5744 5f54 4f43 504d 2032     [LOG] DWT_COMP2 
10006213:	203a 7825 000a                              : %x..

10006219 <.L.str.12>:
10006219:	4c5b 474f 205d 544d 5f42 4142 4553 3a20     [LOG] MTB_BASE :
10006229:	2520 0a78                                     %x..

1000622e <.Lstr.32>:
1000622e:	4c5b 474f 205d 6553 7474 6e69 2067 7075     [LOG] Setting up
1000623e:	4d20 4254                                     MTB.

10006243 <.Lstr.34>:
10006243:	4c5b 474f 205d 6e45 6574 6972 676e 4420     [LOG] Entering D
10006253:	6265 6775 4d20 4254 5220 6765 7369 6574     ebug MTB Registe
10006263:	7372                                         rs.

10006266 <.Lstr.35>:
10006266:	4c5b 474f 205d 6e45 6574 6972 676e 4420     [LOG] Entering D
10006276:	6265 6775 4420 5457 5220 6765 7369 6574     ebug DWT Registe
10006286:	7372 0000 0000                              rs....

1000628c <Region$$Table$$Base>:
1000628c:	100062ac 	.word	0x100062ac
10006290:	38000000 	.word	0x38000000
10006294:	00000028 	.word	0x00000028
10006298:	10000464 	.word	0x10000464
1000629c:	100062d4 	.word	0x100062d4
100062a0:	38000028 	.word	0x38000028
100062a4:	00000a14 	.word	0x00000a14
100062a8:	10000484 	.word	0x10000484

Disassembly of section ER_CMSE_VENEER:

101ffe00 <SECURE_NOPE>:
101ffe00:	e97f e97f 	sg
101ffe04:	f603 bb5c 	b.w	100034c0 <__acle_se_SECURE_NOPE>

101ffe08 <SECURE_register_callback>:
101ffe08:	e97f e97f 	sg
101ffe0c:	f603 bd64 	b.w	100038d8 <__acle_se_SECURE_register_callback>

101ffe10 <SECURE_start_cfa>:
101ffe10:	e97f e97f 	sg
101ffe14:	f603 bdba 	b.w	1000398c <__acle_se_SECURE_start_cfa>

101ffe18 <Secure_LED_On>:
101ffe18:	e97f e97f 	sg
101ffe1c:	f603 be94 	b.w	10003b48 <__acle_se_Secure_LED_On>

101ffe20 <Secure_LED_Off>:
101ffe20:	e97f e97f 	sg
101ffe24:	f603 be3a 	b.w	10003a9c <__acle_se_Secure_LED_Off>

101ffe28 <Secure_printf>:
101ffe28:	e97f e97f 	sg
101ffe2c:	f603 bee2 	b.w	10003bf4 <__acle_se_Secure_printf>

101ffe30 <Secure_LED_On_callback>:
101ffe30:	e97f e97f 	sg
101ffe34:	f603 beb2 	b.w	10003b9c <__acle_se_Secure_LED_On_callback>

101ffe38 <Secure_LED_Off_callback>:
101ffe38:	e97f e97f 	sg
101ffe3c:	f603 be58 	b.w	10003af0 <__acle_se_Secure_LED_Off_callback>

101ffe40 <SECURE_log_loop_cond>:
101ffe40:	e97f e97f 	sg
101ffe44:	f603 bcb0 	b.w	100037a8 <__acle_se_SECURE_log_loop_cond>

101ffe48 <SECURE_log_cond_br_taken>:
101ffe48:	e97f e97f 	sg
101ffe4c:	f603 bc3c 	b.w	100036c8 <__acle_se_SECURE_log_cond_br_taken>

101ffe50 <SECURE_log_cond_br_not_taken>:
101ffe50:	e97f e97f 	sg
101ffe54:	f603 bbc8 	b.w	100035e8 <__acle_se_SECURE_log_cond_br_not_taken>

101ffe58 <SECURE_log_ret>:
101ffe58:	e97f e97f 	sg
101ffe5c:	f603 bcce 	b.w	100037fc <__acle_se_SECURE_log_ret>

101ffe60 <SECURE_log_call>:
101ffe60:	e97f e97f 	sg
101ffe64:	f603 bb52 	b.w	1000350c <__acle_se_SECURE_log_call>
	...
