
.\IOTKit_CM33_ns.axf:     file format elf32-littlearm


Disassembly of section ER_ROM:

00200000 <__Vectors>:
  200000:	00 00 40 28 35 05 20 00 ed 04 20 00 f1 04 20 00     ..@(5. ... ... .
  200010:	ed 04 20 00 ed 04 20 00 ed 04 20 00 ed 04 20 00     .. ... ... ... .
  200020:	00 00 00 00 00 00 00 00 00 00 00 00 ed 04 20 00     .............. .
  200030:	ed 04 20 00 00 00 00 00 ed 04 20 00 59 05 20 00     .. ....... .Y. .
  200040:	ed 04 20 00 ed 04 20 00 ed 04 20 00 ed 04 20 00     .. ... ... ... .
  200050:	ed 04 20 00 ed 04 20 00 00 00 00 00 00 00 00 00     .. ... .........
  200060:	00 00 00 00 ed 04 20 00 ed 04 20 00 ed 04 20 00     ...... ... ... .
  200070:	ed 04 20 00 00 00 00 00 00 00 00 00 00 00 00 00     .. .............
  200080:	00 00 00 00 00 00 00 00 00 00 00 00 00 00 00 00     ................
  200090:	00 00 00 00 00 00 00 00 00 00 00 00 00 00 00 00     ................
  2000a0:	00 00 00 00 00 00 00 00 00 00 00 00 00 00 00 00     ................
  2000b0:	00 00 00 00 00 00 00 00 00 00 00 00 00 00 00 00     ................
  2000c0:	ed 04 20 00 ed 04 20 00 ed 04 20 00 ed 04 20 00     .. ... ... ... .
  2000d0:	ed 04 20 00 ed 04 20 00 ed 04 20 00 ed 04 20 00     .. ... ... ... .
  2000e0:	ed 04 20 00 ed 04 20 00 ed 04 20 00 ed 04 20 00     .. ... ... ... .
  2000f0:	ed 04 20 00 ed 04 20 00 ed 04 20 00 ed 04 20 00     .. ... ... ... .
  200100:	ed 04 20 00 ed 04 20 00 ed 04 20 00 ed 04 20 00     .. ... ... ... .
  200110:	ed 04 20 00 ed 04 20 00 ed 04 20 00 ed 04 20 00     .. ... ... ... .
  200120:	ed 04 20 00 ed 04 20 00 ed 04 20 00 ed 04 20 00     .. ... ... ... .
  200130:	ed 04 20 00 ed 04 20 00 ed 04 20 00 ed 04 20 00     .. ... ... ... .
  200140:	ed 04 20 00 ed 04 20 00 ed 04 20 00 ed 04 20 00     .. ... ... ... .
  200150:	ed 04 20 00 ed 04 20 00 ed 04 20 00 ed 04 20 00     .. ... ... ... .
  200160:	ed 04 20 00 ed 04 20 00 ed 04 20 00 ed 04 20 00     .. ... ... ... .
  200170:	ed 04 20 00 ed 04 20 00 ed 04 20 00 ed 04 20 00     .. ... ... ... .
  200180:	ed 04 20 00 ed 04 20 00 ed 04 20 00 ed 04 20 00     .. ... ... ... .
  200190:	ed 04 20 00 ed 04 20 00 ed 04 20 00 ed 04 20 00     .. ... ... ... .
  2001a0:	ed 04 20 00 ed 04 20 00 ed 04 20 00 ed 04 20 00     .. ... ... ... .
  2001b0:	ed 04 20 00 ed 04 20 00 ed 04 20 00 ed 04 20 00     .. ... ... ... .
  2001c0:	ed 04 20 00 ed 04 20 00 ed 04 20 00 ed 04 20 00     .. ... ... ... .
  2001d0:	ed 04 20 00 ed 04 20 00 ed 04 20 00 ed 04 20 00     .. ... ... ... .
  2001e0:	ed 04 20 00 ed 04 20 00 ed 04 20 00 ed 04 20 00     .. ... ... ... .
  2001f0:	ed 04 20 00 ed 04 20 00 ed 04 20 00 ed 04 20 00     .. ... ... ... .
  200200:	ed 04 20 00 ed 04 20 00 ed 04 20 00 ed 04 20 00     .. ... ... ... .
  200210:	ed 04 20 00 ed 04 20 00 ed 04 20 00 ed 04 20 00     .. ... ... ... .
  200220:	ed 04 20 00 ed 04 20 00 ed 04 20 00 ed 04 20 00     .. ... ... ... .
  200230:	00 00 00 00 00 00 00 00 00 00 00 00 00 00 00 00     ................
  200240:	00 00 00 00 00 00 00 00 00 00 00 00 00 00 00 00     ................
  200250:	00 00 00 00 00 00 00 00 00 00 00 00 00 00 00 00     ................
  200260:	00 00 00 00 00 00 00 00 00 00 00 00 00 00 00 00     ................
  200270:	00 00 00 00 00 00 00 00 00 00 00 00 00 00 00 00     ................
  200280:	00 00 00 00 00 00 00 00 00 00 00 00 00 00 00 00     ................
  200290:	00 00 00 00 00 00 00 00 00 00 00 00 00 00 00 00     ................
  2002a0:	00 00 00 00 00 00 00 00 00 00 00 00 00 00 00 00     ................
  2002b0:	00 00 00 00 00 00 00 00 00 00 00 00 00 00 00 00     ................
  2002c0:	00 00 00 00 00 00 00 00 00 00 00 00 00 00 00 00     ................
  2002d0:	00 00 00 00 00 00 00 00 00 00 00 00 00 00 00 00     ................
  2002e0:	00 00 00 00 00 00 00 00 00 00 00 00 00 00 00 00     ................
  2002f0:	00 00 00 00 00 00 00 00 00 00 00 00 00 00 00 00     ................
  200300:	00 00 00 00 00 00 00 00 00 00 00 00 00 00 00 00     ................
  200310:	00 00 00 00 00 00 00 00 00 00 00 00 00 00 00 00     ................
  200320:	00 00 00 00 00 00 00 00 00 00 00 00 00 00 00 00     ................
  200330:	00 00 00 00 00 00 00 00 00 00 00 00 00 00 00 00     ................
  200340:	00 00 00 00 00 00 00 00 00 00 00 00 00 00 00 00     ................
  200350:	00 00 00 00 00 00 00 00 00 00 00 00 00 00 00 00     ................
  200360:	00 00 00 00 00 00 00 00 00 00 00 00 00 00 00 00     ................
  200370:	00 00 00 00 00 00 00 00 00 00 00 00 00 00 00 00     ................
  200380:	00 00 00 00 00 00 00 00 00 00 00 00 00 00 00 00     ................
  200390:	00 00 00 00 00 00 00 00 00 00 00 00 00 00 00 00     ................
  2003a0:	00 00 00 00 00 00 00 00 00 00 00 00 00 00 00 00     ................
  2003b0:	00 00 00 00 00 00 00 00 00 00 00 00 00 00 00 00     ................
  2003c0:	00 00 00 00 00 00 00 00 00 00 00 00 00 00 00 00     ................
  2003d0:	00 00 00 00 00 00 00 00 00 00 00 00 00 00 00 00     ................
  2003e0:	00 00 00 00 00 00 00 00 00 00 00 00 00 00 00 00     ................
  2003f0:	00 00 00 00 00 00 00 00 00 00 00 00 00 00 00 00     ................

00200400 <__main>:
  200400:	f000 f802 	bl	200408 <__scatterload_rt2>
  200404:	f000 f852 	bl	2004ac <__rt_entry>

00200408 <__scatterload_rt2>:
  200408:	a614      	add	r6, pc, #80	@ (adr r6, 20045c <__scatterload_loop+0x4a>)
  20040a:	e896 0c00 	ldmia.w	r6, {sl, fp}
  20040e:	44b2      	add	sl, r6
  200410:	44b3      	add	fp, r6

00200412 <__scatterload_loop>:
  200412:	45da      	cmp	sl, fp
  200414:	d101      	bne.n	20041a <__scatterload_loop+0x8>
  200416:	f000 f849 	bl	2004ac <__rt_entry>
  20041a:	e8ba 000f 	ldmia.w	sl!, {r0, r1, r2, r3}
  20041e:	a60f      	add	r6, pc, #60	@ (adr r6, 20045c <__scatterload_loop+0x4a>)
  200420:	e896 0030 	ldmia.w	r6, {r4, r5}
  200424:	eba5 0504 	sub.w	r5, r5, r4
  200428:	eb04 0706 	add.w	r7, r4, r6
  20042c:	ebaa 0407 	sub.w	r4, sl, r7
  200430:	f1a7 0701 	sub.w	r7, r7, #1
  200434:	ea4f 1515 	mov.w	r5, r5, lsr #4
  200438:	ea4f 1434 	mov.w	r4, r4, ror #4
  20043c:	f1a4 0401 	sub.w	r4, r4, #1
  200440:	42ac      	cmp	r4, r5
  200442:	d301      	bcc.n	200448 <__scatterload_loop+0x36>
  200444:	f000 f832 	bl	2004ac <__rt_entry>
  200448:	f013 0f01 	tst.w	r3, #1
  20044c:	bf18      	it	ne
  20044e:	1afb      	subne	r3, r7, r3
  200450:	f043 0301 	orr.w	r3, r3, #1
  200454:	f000 f801 	bl	20045a <__scatterload_loop+0x48>
  200458:	e7db      	b.n	200412 <__scatterload_loop>
  20045a:	4718      	bx	r3
  20045c:	000002f0 	.word	0x000002f0
  200460:	00000310 	.word	0x00000310

00200464 <__scatterload_copy>:
  200464:	3a10      	subs	r2, #16
  200466:	bf24      	itt	cs
  200468:	c878      	ldmiacs	r0!, {r3, r4, r5, r6}
  20046a:	c178      	stmiacs	r1!, {r3, r4, r5, r6}
  20046c:	d8fa      	bhi.n	200464 <__scatterload_copy>
  20046e:	0752      	lsls	r2, r2, #29
  200470:	bf24      	itt	cs
  200472:	c830      	ldmiacs	r0!, {r4, r5}
  200474:	c130      	stmiacs	r1!, {r4, r5}
  200476:	bf44      	itt	mi
  200478:	6804      	ldrmi	r4, [r0, #0]
  20047a:	600c      	strmi	r4, [r1, #0]
  20047c:	4770      	bx	lr
  20047e:	0000      	movs	r0, r0

00200480 <__scatterload_null>:
  200480:	4770      	bx	lr
  200482:	0000      	movs	r0, r0

00200484 <__scatterload_zeroinit>:
  200484:	2300      	movs	r3, #0
  200486:	2400      	movs	r4, #0
  200488:	2500      	movs	r5, #0
  20048a:	2600      	movs	r6, #0
  20048c:	3a10      	subs	r2, #16
  20048e:	bf28      	it	cs
  200490:	c178      	stmiacs	r1!, {r3, r4, r5, r6}
  200492:	d8fb      	bhi.n	20048c <__scatterload_zeroinit+0x8>
  200494:	0752      	lsls	r2, r2, #29
  200496:	bf28      	it	cs
  200498:	c130      	stmiacs	r1!, {r4, r5}
  20049a:	bf48      	it	mi
  20049c:	600b      	strmi	r3, [r1, #0]
  20049e:	4770      	bx	lr

002004a0 <__rt_lib_init>:
  2004a0:	b51f      	push	{r0, r1, r2, r3, r4, lr}

002004a2 <__rt_lib_init_fp_1>:
  2004a2:	f000 f945 	bl	200730 <_fp_init>

002004a6 <__rt_lib_init_alloca_1>:
  2004a6:	bd1f      	pop	{r0, r1, r2, r3, r4, pc}

002004a8 <__rt_lib_shutdown>:
  2004a8:	b510      	push	{r4, lr}

002004aa <__rt_lib_shutdown_cpp_1>:
  2004aa:	bd10      	pop	{r4, pc}

002004ac <__rt_entry>:
  2004ac:	f8df d00c 	ldr.w	sp, [pc, #12]	@ 2004bc <__lit__00000000>

002004b0 <__rt_entry_li>:
  2004b0:	f7ff fff6 	bl	2004a0 <__rt_lib_init>

002004b4 <__rt_entry_main>:
  2004b4:	f000 f898 	bl	2005e8 <main>
  2004b8:	f000 f808 	bl	2004cc <exit>

002004bc <__lit__00000000>:
  2004bc:	0000 2840                                   ..@(

002004c0 <__rt_exit>:
  2004c0:	b403      	push	{r0, r1}

002004c2 <__rt_exit_ls>:
  2004c2:	f7ff fff1 	bl	2004a8 <__rt_lib_shutdown>

002004c6 <__rt_exit_exit>:
  2004c6:	bc03      	pop	{r0, r1}
  2004c8:	f000 f80a 	bl	2004e0 <_sys_exit>

002004cc <exit>:
  2004cc:	b510      	push	{r4, lr}
  2004ce:	4604      	mov	r4, r0
  2004d0:	f3af 8000 	nop.w
  2004d4:	4620      	mov	r0, r4
  2004d6:	e8bd 4010 	ldmia.w	sp!, {r4, lr}
  2004da:	f7ff bff1 	b.w	2004c0 <__rt_exit>

002004de <__use_no_semihosting_swi>:
  2004de:	4770      	bx	lr

002004e0 <_sys_exit>:
  2004e0:	4901      	ldr	r1, [pc, #4]	@ (2004e8 <_sys_exit+0x8>)
  2004e2:	2018      	movs	r0, #24
  2004e4:	beab      	bkpt	0x00ab
  2004e6:	e7fe      	b.n	2004e6 <_sys_exit+0x6>
  2004e8:	00020026 	.word	0x00020026

002004ec <Default_Handler>:
  2004ec:	e7fe      	b.n	2004ec <Default_Handler>
  2004ee:	0000      	movs	r0, r0

002004f0 <HardFault_Handler>:
  2004f0:	e7fe      	b.n	2004f0 <HardFault_Handler>
  2004f2:	0000      	movs	r0, r0

002004f4 <LED_Off>:
  2004f4:	2807      	cmp	r0, #7
  2004f6:	d809      	bhi.n	20050c <LED_Off+0x18>
  2004f8:	2204      	movs	r2, #4
  2004fa:	f2c4 0230 	movt	r2, #16432	@ 0x4030
  2004fe:	2101      	movs	r1, #1
  200500:	6813      	ldr	r3, [r2, #0]
  200502:	fa01 f000 	lsl.w	r0, r1, r0
  200506:	ea23 0000 	bic.w	r0, r3, r0
  20050a:	6010      	str	r0, [r2, #0]
  20050c:	2000      	movs	r0, #0
  20050e:	4770      	bx	lr

00200510 <LED_On>:
  200510:	2807      	cmp	r0, #7
  200512:	d808      	bhi.n	200526 <LED_On+0x16>
  200514:	2204      	movs	r2, #4
  200516:	f2c4 0230 	movt	r2, #16432	@ 0x4030
  20051a:	2101      	movs	r1, #1
  20051c:	6813      	ldr	r3, [r2, #0]
  20051e:	fa01 f000 	lsl.w	r0, r1, r0
  200522:	4318      	orrs	r0, r3
  200524:	6010      	str	r0, [r2, #0]
  200526:	2000      	movs	r0, #0
  200528:	4770      	bx	lr
  20052a:	0000      	movs	r0, r0

0020052c <NonSecure_LED_Off>:
  20052c:	f7ff bfe2 	b.w	2004f4 <LED_Off>

00200530 <NonSecure_LED_On>:
  200530:	f7ff bfee 	b.w	200510 <LED_On>

00200534 <Reset_Handler>:
  200534:	f240 0000 	movw	r0, #0
  200538:	f6c2 0040 	movt	r0, #10304	@ 0x2840
  20053c:	f380 8809 	msr	PSP, r0
  200540:	f64f 4000 	movw	r0, #64512	@ 0xfc00
  200544:	f6c2 003f 	movt	r0, #10303	@ 0x283f
  200548:	f380 880a 	msr	MSPLIM, r0
  20054c:	f380 880b 	msr	PSPLIM, r0
  200550:	f000 f832 	bl	2005b8 <SystemInit>
  200554:	f7ff ff54 	bl	200400 <__main>

00200558 <SysTick_Handler>:
  200558:	f240 0020 	movw	r0, #32
  20055c:	f6c2 0020 	movt	r0, #10272	@ 0x2820
  200560:	6802      	ldr	r2, [r0, #0]
  200562:	1c51      	adds	r1, r2, #1
  200564:	2a1d      	cmp	r2, #29
  200566:	6001      	str	r1, [r0, #0]
  200568:	dd06      	ble.n	200578 <SysTick_Handler+0x20>
  20056a:	2a1e      	cmp	r2, #30
  20056c:	d00b      	beq.n	200586 <SysTick_Handler+0x2e>
  20056e:	2a32      	cmp	r2, #50	@ 0x32
  200570:	d00c      	beq.n	20058c <SysTick_Handler+0x34>
  200572:	2a63      	cmp	r2, #99	@ 0x63
  200574:	d013      	beq.n	20059e <SysTick_Handler+0x46>
  200576:	e00f      	b.n	200598 <SysTick_Handler+0x40>
  200578:	2a0a      	cmp	r2, #10
  20057a:	d00a      	beq.n	200592 <SysTick_Handler+0x3a>
  20057c:	2a14      	cmp	r2, #20
  20057e:	d10b      	bne.n	200598 <SysTick_Handler+0x40>
  200580:	2006      	movs	r0, #6
  200582:	f000 b8bc 	b.w	2006fe <main+0x116>
  200586:	2007      	movs	r0, #7
  200588:	f7ff bfb4 	b.w	2004f4 <LED_Off>
  20058c:	2006      	movs	r0, #6
  20058e:	f000 b8bb 	b.w	200708 <main+0x120>
  200592:	2007      	movs	r0, #7
  200594:	f7ff bfbc 	b.w	200510 <LED_On>
  200598:	2964      	cmp	r1, #100	@ 0x64
  20059a:	bf38      	it	cc
  20059c:	4770      	bxcc	lr
  20059e:	2100      	movs	r1, #0
  2005a0:	6001      	str	r1, [r0, #0]
  2005a2:	4770      	bx	lr

002005a4 <SystemCoreClockUpdate>:
  2005a4:	f240 0000 	movw	r0, #0
  2005a8:	f647 0140 	movw	r1, #30784	@ 0x7840
  2005ac:	f6c2 0020 	movt	r0, #10272	@ 0x2820
  2005b0:	f2c0 117d 	movt	r1, #381	@ 0x17d
  2005b4:	6001      	str	r1, [r0, #0]
  2005b6:	4770      	bx	lr

002005b8 <SystemInit>:
  2005b8:	f240 0000 	movw	r0, #0
  2005bc:	f64e 5188 	movw	r1, #60808	@ 0xed88
  2005c0:	f2c0 0020 	movt	r0, #32
  2005c4:	f2ce 0100 	movt	r1, #57344	@ 0xe000
  2005c8:	f841 0c80 	str.w	r0, [r1, #-128]
  2005cc:	6808      	ldr	r0, [r1, #0]
  2005ce:	f440 0070 	orr.w	r0, r0, #15728640	@ 0xf00000
  2005d2:	6008      	str	r0, [r1, #0]
  2005d4:	f240 0000 	movw	r0, #0
  2005d8:	f647 0140 	movw	r1, #30784	@ 0x7840
  2005dc:	f6c2 0020 	movt	r0, #10272	@ 0x2820
  2005e0:	f2c0 117d 	movt	r1, #381	@ 0x17d
  2005e4:	6001      	str	r1, [r0, #0]
  2005e6:	4770      	bx	lr

002005e8 <main>:
  2005e8:	b084      	sub	sp, #16
  2005ea:	f64e 7040 	movw	r0, #61248	@ 0xef40
  2005ee:	f2ce 0000 	movt	r0, #57344	@ 0xe000
  2005f2:	6800      	ldr	r0, [r0, #0]
  2005f4:	f400 607f 	and.w	r0, r0, #4080	@ 0xff0
  2005f8:	f1a0 0120 	sub.w	r1, r0, #32
  2005fc:	fab1 f181 	clz	r1, r1
  200600:	f5b0 7f08 	cmp.w	r0, #544	@ 0x220
  200604:	f644 60a5 	movw	r0, #20133	@ 0x4ea5
  200608:	ea4f 1151 	mov.w	r1, r1, lsr #5
  20060c:	f2c4 1047 	movt	r0, #16711	@ 0x4147
  200610:	bf08      	it	eq
  200612:	2102      	moveq	r1, #2
  200614:	9103      	str	r1, [sp, #12]
  200616:	9002      	str	r0, [sp, #8]
  200618:	f64e 6095 	movw	r0, #61077	@ 0xee95
  20061c:	f6c3 7029 	movt	r0, #16169	@ 0x3f29
  200620:	9001      	str	r0, [sp, #4]
  200622:	f24e 308f 	movw	r0, #58255	@ 0xe38f
  200626:	f2c4 10c0 	movt	r0, #16832	@ 0x41c0
  20062a:	9000      	str	r0, [sp, #0]
  20062c:	ed9d 0a00 	vldr	s0, [sp]
  200630:	ed9d 1a02 	vldr	s2, [sp, #8]
  200634:	ed9d 2a01 	vldr	s4, [sp, #4]
  200638:	ee81 1a02 	vdiv.f32	s2, s2, s4
  20063c:	ee20 0a01 	vmul.f32	s0, s0, s2
  200640:	ed8d 0a00 	vstr	s0, [sp]
  200644:	f3ef 8008 	mrs	r0, MSP
  200648:	f3ef 8009 	mrs	r0, PSP
  20064c:	f240 5031 	movw	r0, #1329	@ 0x531
  200650:	f2c0 0020 	movt	r0, #32
  200654:	f000 f85d 	bl	200712 <main+0x12a>
  200658:	f240 502d 	movw	r0, #1325	@ 0x52d
  20065c:	f2c0 0020 	movt	r0, #32
  200660:	f000 f85c 	bl	20071c <main+0x134>
  200664:	f7ff ff9e 	bl	2005a4 <SystemCoreClockUpdate>
  200668:	f240 0000 	movw	r0, #0
  20066c:	f6c2 0020 	movt	r0, #10272	@ 0x2820
  200670:	6800      	ldr	r0, [r0, #0]
  200672:	f248 511f 	movw	r1, #34079	@ 0x851f
  200676:	f2c5 11eb 	movt	r1, #20971	@ 0x51eb
  20067a:	fba0 0101 	umull	r0, r1, r0, r1
  20067e:	f04f 30ff 	mov.w	r0, #4294967295
  200682:	eb00 1151 	add.w	r1, r0, r1, lsr #5
  200686:	2000      	movs	r0, #0
  200688:	ebb0 6f11 	cmp.w	r0, r1, lsr #24
  20068c:	d10d      	bne.n	2006aa <main+0xc2>
  20068e:	f24e 0210 	movw	r2, #57360	@ 0xe010
  200692:	f2ce 0200 	movt	r2, #57344	@ 0xe000
  200696:	6051      	str	r1, [r2, #4]
  200698:	f64e 5123 	movw	r1, #60707	@ 0xed23
  20069c:	f2ce 0100 	movt	r1, #57344	@ 0xe000
  2006a0:	23e0      	movs	r3, #224	@ 0xe0
  2006a2:	700b      	strb	r3, [r1, #0]
  2006a4:	6090      	str	r0, [r2, #8]
  2006a6:	2007      	movs	r0, #7
  2006a8:	6010      	str	r0, [r2, #0]
  2006aa:	f240 0404 	movw	r4, #4
  2006ae:	f6c2 0420 	movt	r4, #10272	@ 0x2820
  2006b2:	bf00      	nop
  2006b4:	2005      	movs	r0, #5
  2006b6:	f7ff ff2b 	bl	200510 <LED_On>
  2006ba:	f44f 1080 	mov.w	r0, #1048576	@ 0x100000
  2006be:	bf00      	nop
  2006c0:	3801      	subs	r0, #1
  2006c2:	bf00      	nop
  2006c4:	d1fc      	bne.n	2006c0 <main+0xd8>
  2006c6:	2005      	movs	r0, #5
  2006c8:	f7ff ff14 	bl	2004f4 <LED_Off>
  2006cc:	f44f 1080 	mov.w	r0, #1048576	@ 0x100000
  2006d0:	3801      	subs	r0, #1
  2006d2:	bf00      	nop
  2006d4:	d1fc      	bne.n	2006d0 <main+0xe8>
  2006d6:	2004      	movs	r0, #4
  2006d8:	f000 f811 	bl	2006fe <main+0x116>
  2006dc:	f44f 1080 	mov.w	r0, #1048576	@ 0x100000
  2006e0:	3801      	subs	r0, #1
  2006e2:	bf00      	nop
  2006e4:	d1fc      	bne.n	2006e0 <main+0xf8>
  2006e6:	2004      	movs	r0, #4
  2006e8:	f000 f80e 	bl	200708 <main+0x120>
  2006ec:	f44f 1080 	mov.w	r0, #1048576	@ 0x100000
  2006f0:	3801      	subs	r0, #1
  2006f2:	bf00      	nop
  2006f4:	d1fc      	bne.n	2006f0 <main+0x108>
  2006f6:	4620      	mov	r0, r4
  2006f8:	f000 f815 	bl	200726 <main+0x13e>
  2006fc:	e7da      	b.n	2006b4 <main+0xcc>
  2006fe:	f64f 6c01 	movw	ip, #65025	@ 0xfe01
  200702:	f2c1 0c1f 	movt	ip, #4127	@ 0x101f
  200706:	4760      	bx	ip
  200708:	f64f 6c09 	movw	ip, #65033	@ 0xfe09
  20070c:	f2c1 0c1f 	movt	ip, #4127	@ 0x101f
  200710:	4760      	bx	ip
  200712:	f64f 6c19 	movw	ip, #65049	@ 0xfe19
  200716:	f2c1 0c1f 	movt	ip, #4127	@ 0x101f
  20071a:	4760      	bx	ip
  20071c:	f64f 6c21 	movw	ip, #65057	@ 0xfe21
  200720:	f2c1 0c1f 	movt	ip, #4127	@ 0x101f
  200724:	4760      	bx	ip
  200726:	f64f 6c11 	movw	ip, #65041	@ 0xfe11
  20072a:	f2c1 0c1f 	movt	ip, #4127	@ 0x101f
  20072e:	4760      	bx	ip

00200730 <_fp_init>:
  200730:	eef1 0a10 	vmrs	r0, fpscr
  200734:	f64f 71ff 	movw	r1, #65535	@ 0xffff
  200738:	f2c0 31c0 	movt	r1, #960	@ 0x3c0
  20073c:	ea20 0001 	bic.w	r0, r0, r1
  200740:	f040 7040 	orr.w	r0, r0, #50331648	@ 0x3000000
  200744:	eee1 0a10 	vmsr	fpscr, r0

00200748 <__fplib_config_fpu_vfp>:
  200748:	4770      	bx	lr
  20074a:	0000      	movs	r0, r0

0020074c <Region$$Table$$Base>:
  20074c:	0020076c 	.word	0x0020076c
  200750:	28200000 	.word	0x28200000
  200754:	00000020 	.word	0x00000020
  200758:	00200464 	.word	0x00200464
  20075c:	0020078c 	.word	0x0020078c
  200760:	28200020 	.word	0x28200020
  200764:	00000004 	.word	0x00000004
  200768:	00200484 	.word	0x00200484
