	.text
	.syntax unified
	.eabi_attribute	67, "2.09"	@ Tag_conformance
	.cpu	cortex-m33
	.eabi_attribute	6, 17	@ Tag_CPU_arch
	.eabi_attribute	7, 77	@ Tag_CPU_arch_profile
	.eabi_attribute	8, 0	@ Tag_ARM_ISA_use
	.eabi_attribute	9, 3	@ Tag_THUMB_ISA_use
	.fpu	fpv5-sp-d16
	.eabi_attribute	27, 1	@ Tag_ABI_HardFP_use
	.eabi_attribute	36, 1	@ Tag_FP_HP_extension
	.eabi_attribute	46, 1	@ Tag_DSP_extension
	.eabi_attribute	34, 1	@ Tag_CPU_unaligned_access
	.eabi_attribute	17, 1	@ Tag_ABI_PCS_GOT_use
	.eabi_attribute	20, 2	@ Tag_ABI_FP_denormal
	.eabi_attribute	21, 0	@ Tag_ABI_FP_exceptions
	.eabi_attribute	23, 1	@ Tag_ABI_FP_number_model
	.eabi_attribute	24, 1	@ Tag_ABI_align_needed
	.eabi_attribute	25, 1	@ Tag_ABI_align_preserved
	.eabi_attribute	28, 1	@ Tag_ABI_VFP_args
	.eabi_attribute	38, 1	@ Tag_ABI_FP_16bit_format
	.eabi_attribute	18, 2	@ Tag_ABI_PCS_wchar_t
	.eabi_attribute	26, 1	@ Tag_ABI_enum_size
	.eabi_attribute	14, 0	@ Tag_ABI_PCS_R9_use
	.file	"main_s.c"
	.file	1 "P:\\Workspace\\Git\\MTB_CFA\\IOTKit_CM33_S_NS\\IOTKit_CM33_s" "main_s.c"
	.file	2 "C:\\Users\\aj4775\\AppData\\Local\\Keil_v5\\ARM\\ARMCLANG\\bin\\..\\include" "stdint.h"
	.file	3 "P:\\Workspace\\Git\\MTB_CFA\\IOTKit_CM33_S_NS\\IOTKit_CM33_s" ".\\mtb.h"
	.file	4 "C:/Users/aj4775/AppData/Local/arm/packs/Keil/V2M-MPS2_IOTKit_BSP/1.5.2/Device/IOTKit_CM33/Include" "IOTKit_CM33_FP.h"
	.file	5 "C:/Users/aj4775/AppData/Local/arm/packs/ARM/CMSIS/6.1.0/CMSIS/Core/Include" "core_cm33.h"
	.section	.text.Secure_LED_On,"ax",%progbits
	.hidden	Secure_LED_On                   @ -- Begin function Secure_LED_On
	.globl	Secure_LED_On
	.p2align	2
	.type	Secure_LED_On,%function
	.code	16                              @ @Secure_LED_On
	.thumb_func
	.globl	__acle_se_Secure_LED_On
	.type	__acle_se_Secure_LED_On,%function
__acle_se_Secure_LED_On:
Secure_LED_On:
.Lfunc_begin0:
	.loc	1 42 0                          @ main_s.c:42:0
	.fnstart
	.cfi_sections .debug_frame
	.cfi_startproc
@ %bb.0:
	.save	{r7, lr}
	push	{r7, lr}
	.cfi_def_cfa_offset 8
	.cfi_offset lr, -4
	.cfi_offset r7, -8
	.pad	#8
	sub	sp, #8
	.cfi_def_cfa_offset 16
	str	r0, [sp, #4]
.Ltmp0:
	.loc	1 43 17 prologue_end            @ main_s.c:43:17
	ldr	r0, [sp, #4]
	.loc	1 43 10 is_stmt 0               @ main_s.c:43:10
	bl	LED_On
	.loc	1 43 3 epilogue_begin           @ main_s.c:43:3
	add	sp, #8
	pop.w	{r7, lr}
	mrs	r12, control
	tst.w	r12, #8
	beq	.LBB0_2
@ %bb.1:
	vmov	d0, lr, lr
	vmov	d1, lr, lr
	vmov	d2, lr, lr
	vmov	d3, lr, lr
	vmov	d4, lr, lr
	vmov	d5, lr, lr
	vmov	d6, lr, lr
	vmov	d7, lr, lr
	vmrs	r12, fpscr
	bic	r12, r12, #159
	bic	r12, r12, #4026531840
	vmsr	fpscr, r12
.LBB0_2:
	mov	r1, lr
	mov	r2, lr
	mov	r3, lr
	mov	r12, lr
	msr	apsr_nzcvqg, lr
	bxns	lr
.Ltmp1:
.Lfunc_end0:
	.size	Secure_LED_On, .Lfunc_end0-Secure_LED_On
	.cfi_endproc
	.cantunwind
	.fnend
                                        @ -- End function
	.section	.text.Secure_LED_Off,"ax",%progbits
	.hidden	Secure_LED_Off                  @ -- Begin function Secure_LED_Off
	.globl	Secure_LED_Off
	.p2align	2
	.type	Secure_LED_Off,%function
	.code	16                              @ @Secure_LED_Off
	.thumb_func
	.globl	__acle_se_Secure_LED_Off
	.type	__acle_se_Secure_LED_Off,%function
__acle_se_Secure_LED_Off:
Secure_LED_Off:
.Lfunc_begin1:
	.loc	1 48 0 is_stmt 1                @ main_s.c:48:0
	.fnstart
	.cfi_startproc
@ %bb.0:
	.save	{r7, lr}
	push	{r7, lr}
	.cfi_def_cfa_offset 8
	.cfi_offset lr, -4
	.cfi_offset r7, -8
	.pad	#8
	sub	sp, #8
	.cfi_def_cfa_offset 16
	str	r0, [sp, #4]
.Ltmp2:
	.loc	1 49 18 prologue_end            @ main_s.c:49:18
	ldr	r0, [sp, #4]
	.loc	1 49 10 is_stmt 0               @ main_s.c:49:10
	bl	LED_Off
	.loc	1 49 3 epilogue_begin           @ main_s.c:49:3
	add	sp, #8
	pop.w	{r7, lr}
	mrs	r12, control
	tst.w	r12, #8
	beq	.LBB1_2
@ %bb.1:
	vmov	d0, lr, lr
	vmov	d1, lr, lr
	vmov	d2, lr, lr
	vmov	d3, lr, lr
	vmov	d4, lr, lr
	vmov	d5, lr, lr
	vmov	d6, lr, lr
	vmov	d7, lr, lr
	vmrs	r12, fpscr
	bic	r12, r12, #159
	bic	r12, r12, #4026531840
	vmsr	fpscr, r12
.LBB1_2:
	mov	r1, lr
	mov	r2, lr
	mov	r3, lr
	mov	r12, lr
	msr	apsr_nzcvqg, lr
	bxns	lr
.Ltmp3:
.Lfunc_end1:
	.size	Secure_LED_Off, .Lfunc_end1-Secure_LED_Off
	.cfi_endproc
	.cantunwind
	.fnend
                                        @ -- End function
	.section	.text.Secure_printf,"ax",%progbits
	.hidden	Secure_printf                   @ -- Begin function Secure_printf
	.globl	Secure_printf
	.p2align	2
	.type	Secure_printf,%function
	.code	16                              @ @Secure_printf
	.thumb_func
	.globl	__acle_se_Secure_printf
	.type	__acle_se_Secure_printf,%function
__acle_se_Secure_printf:
Secure_printf:
.Lfunc_begin2:
	.loc	1 54 0 is_stmt 1                @ main_s.c:54:0
	.fnstart
	.cfi_startproc
@ %bb.0:
	.save	{r7, lr}
	push	{r7, lr}
	.cfi_def_cfa_offset 8
	.cfi_offset lr, -4
	.cfi_offset r7, -8
	.pad	#8
	sub	sp, #8
	.cfi_def_cfa_offset 16
	str	r0, [sp, #4]
.Ltmp4:
	.loc	1 55 16 prologue_end            @ main_s.c:55:16
	ldr	r1, [sp, #4]
	.loc	1 55 3 is_stmt 0                @ main_s.c:55:3
	movw	r0, :lower16:.L.str
	movt	r0, :upper16:.L.str
	bl	printf
	.loc	1 56 1 epilogue_begin is_stmt 1 @ main_s.c:56:1
	add	sp, #8
	pop.w	{r7, lr}
	mrs	r12, control
	tst.w	r12, #8
	beq	.LBB2_2
@ %bb.1:
	vmov	d0, lr, lr
	vmov	d1, lr, lr
	vmov	d2, lr, lr
	vmov	d3, lr, lr
	vmov	d4, lr, lr
	vmov	d5, lr, lr
	vmov	d6, lr, lr
	vmov	d7, lr, lr
	vmrs	r12, fpscr
	bic	r12, r12, #159
	bic	r12, r12, #4026531840
	vmsr	fpscr, r12
.LBB2_2:
	mov	r0, lr
	mov	r1, lr
	mov	r2, lr
	mov	r3, lr
	mov	r12, lr
	msr	apsr_nzcvqg, lr
	bxns	lr
.Ltmp5:
.Lfunc_end2:
	.size	Secure_printf, .Lfunc_end2-Secure_printf
	.cfi_endproc
	.cantunwind
	.fnend
                                        @ -- End function
	.section	.text.Secure_LED_On_callback,"ax",%progbits
	.hidden	Secure_LED_On_callback          @ -- Begin function Secure_LED_On_callback
	.globl	Secure_LED_On_callback
	.p2align	2
	.type	Secure_LED_On_callback,%function
	.code	16                              @ @Secure_LED_On_callback
	.thumb_func
	.globl	__acle_se_Secure_LED_On_callback
	.type	__acle_se_Secure_LED_On_callback,%function
__acle_se_Secure_LED_On_callback:
Secure_LED_On_callback:
.Lfunc_begin3:
	.loc	1 64 0                          @ main_s.c:64:0
	.fnstart
	.cfi_startproc
@ %bb.0:
	.pad	#4
	sub	sp, #4
	.cfi_def_cfa_offset 4
	str	r0, [sp]
.Ltmp6:
	.loc	1 65 24 prologue_end            @ main_s.c:65:24
	ldr	r0, [sp]
	.loc	1 65 22 is_stmt 0               @ main_s.c:65:22
	movw	r1, :lower16:pfNonSecure_LED_On
	movt	r1, :upper16:pfNonSecure_LED_On
	str	r0, [r1]
	movs	r0, #0
	.loc	1 66 3 epilogue_begin is_stmt 1 @ main_s.c:66:3
	add	sp, #4
	mrs	r12, control
	tst.w	r12, #8
	beq	.LBB3_2
@ %bb.1:
	vmov	d0, lr, lr
	vmov	d1, lr, lr
	vmov	d2, lr, lr
	vmov	d3, lr, lr
	vmov	d4, lr, lr
	vmov	d5, lr, lr
	vmov	d6, lr, lr
	vmov	d7, lr, lr
	vmrs	r12, fpscr
	bic	r12, r12, #159
	bic	r12, r12, #4026531840
	vmsr	fpscr, r12
.LBB3_2:
	mov	r1, lr
	mov	r2, lr
	mov	r3, lr
	mov	r12, lr
	msr	apsr_nzcvqg, lr
	bxns	lr
.Ltmp7:
.Lfunc_end3:
	.size	Secure_LED_On_callback, .Lfunc_end3-Secure_LED_On_callback
	.cfi_endproc
	.cantunwind
	.fnend
                                        @ -- End function
	.section	.text.Secure_LED_Off_callback,"ax",%progbits
	.hidden	Secure_LED_Off_callback         @ -- Begin function Secure_LED_Off_callback
	.globl	Secure_LED_Off_callback
	.p2align	2
	.type	Secure_LED_Off_callback,%function
	.code	16                              @ @Secure_LED_Off_callback
	.thumb_func
	.globl	__acle_se_Secure_LED_Off_callback
	.type	__acle_se_Secure_LED_Off_callback,%function
__acle_se_Secure_LED_Off_callback:
Secure_LED_Off_callback:
.Lfunc_begin4:
	.loc	1 71 0                          @ main_s.c:71:0
	.fnstart
	.cfi_startproc
@ %bb.0:
	.pad	#4
	sub	sp, #4
	.cfi_def_cfa_offset 4
	str	r0, [sp]
.Ltmp8:
	.loc	1 72 25 prologue_end            @ main_s.c:72:25
	ldr	r0, [sp]
	.loc	1 72 23 is_stmt 0               @ main_s.c:72:23
	movw	r1, :lower16:pfNonSecure_LED_Off
	movt	r1, :upper16:pfNonSecure_LED_Off
	str	r0, [r1]
	movs	r0, #0
	.loc	1 73 3 epilogue_begin is_stmt 1 @ main_s.c:73:3
	add	sp, #4
	mrs	r12, control
	tst.w	r12, #8
	beq	.LBB4_2
@ %bb.1:
	vmov	d0, lr, lr
	vmov	d1, lr, lr
	vmov	d2, lr, lr
	vmov	d3, lr, lr
	vmov	d4, lr, lr
	vmov	d5, lr, lr
	vmov	d6, lr, lr
	vmov	d7, lr, lr
	vmrs	r12, fpscr
	bic	r12, r12, #159
	bic	r12, r12, #4026531840
	vmsr	fpscr, r12
.LBB4_2:
	mov	r1, lr
	mov	r2, lr
	mov	r3, lr
	mov	r12, lr
	msr	apsr_nzcvqg, lr
	bxns	lr
.Ltmp9:
.Lfunc_end4:
	.size	Secure_LED_Off_callback, .Lfunc_end4-Secure_LED_Off_callback
	.cfi_endproc
	.cantunwind
	.fnend
                                        @ -- End function
	.section	.text.SysTick_Handler,"ax",%progbits
	.hidden	SysTick_Handler                 @ -- Begin function SysTick_Handler
	.globl	SysTick_Handler
	.p2align	2
	.type	SysTick_Handler,%function
	.code	16                              @ @SysTick_Handler
	.thumb_func
SysTick_Handler:
.Lfunc_begin5:
	.loc	1 81 0                          @ main_s.c:81:0
	.fnstart
	.cfi_startproc
@ %bb.0:
	.save	{r7, lr}
	push	{r7, lr}
	.cfi_def_cfa_offset 8
	.cfi_offset lr, -4
	.cfi_offset r7, -8
	.pad	#8
	sub	sp, #8
	.cfi_def_cfa_offset 16
.Ltmp10:
	.loc	1 85 16 prologue_end            @ main_s.c:85:16
	movw	r2, :lower16:SysTick_Handler.ticks
	movt	r2, :upper16:SysTick_Handler.ticks
	ldr	r0, [r2]
	str	r0, [sp, #4]                    @ 4-byte Spill
	adds	r1, r0, #1
	str	r1, [r2]
	.loc	1 85 3 is_stmt 0                @ main_s.c:85:3
	cmp	r0, #10
	beq	.LBB5_5
	b	.LBB5_1
.LBB5_1:
	ldr	r0, [sp, #4]                    @ 4-byte Reload
	cmp	r0, #20
	beq	.LBB5_6
	b	.LBB5_2
.LBB5_2:
	ldr	r0, [sp, #4]                    @ 4-byte Reload
	cmp	r0, #30
	beq	.LBB5_7
	b	.LBB5_3
.LBB5_3:
	ldr	r0, [sp, #4]                    @ 4-byte Reload
	cmp	r0, #50
	beq	.LBB5_10
	b	.LBB5_4
.LBB5_4:
	ldr	r0, [sp, #4]                    @ 4-byte Reload
	cmp	r0, #99
	beq	.LBB5_13
	b	.LBB5_16
.LBB5_5:
	.loc	1 0 3                           @ main_s.c:0:3
	movs	r0, #0
.Ltmp11:
	.loc	1 87 7 is_stmt 1                @ main_s.c:87:7
	bl	LED_On
	.loc	1 88 7                          @ main_s.c:88:7
	b	.LBB5_19
.LBB5_6:
	.loc	1 0 7 is_stmt 0                 @ main_s.c:0:7
	movs	r0, #0
	.loc	1 90 7 is_stmt 1                @ main_s.c:90:7
	bl	LED_Off
	.loc	1 91 7                          @ main_s.c:91:7
	b	.LBB5_19
.LBB5_7:
.Ltmp12:
	.loc	1 93 11                         @ main_s.c:93:11
	movw	r0, :lower16:pfNonSecure_LED_On
	movt	r0, :upper16:pfNonSecure_LED_On
	ldr	r0, [r0]
.Ltmp13:
	.loc	1 93 11 is_stmt 0               @ main_s.c:93:11
	cbz	r0, .LBB5_9
	b	.LBB5_8
.LBB5_8:
.Ltmp14:
	.loc	1 95 9 is_stmt 1                @ main_s.c:95:9
	movw	r0, :lower16:pfNonSecure_LED_On
	movt	r0, :upper16:pfNonSecure_LED_On
	ldr	r1, [r0]
	movs	r0, #1
	push.w	{r4, r5, r6, r7, r8, r9, r10, r11}
	bic	r1, r1, #1
	sub	sp, #136
	vlstm	sp, {d0 - d15}
	mov	r2, r1
	mov	r3, r1
	mov	r4, r1
	mov	r5, r1
	mov	r6, r1
	mov	r7, r1
	mov	r8, r1
	mov	r9, r1
	mov	r10, r1
	mov	r11, r1
	mov	r12, r1
	msr	apsr_nzcvqg, r1
	blxns	r1
	mrs	r12, control
	tst.w	r12, #8
	it	ne
	vmovne.f32	s0, s0
	vlldm	sp, {d0 - d15}
	add	sp, #136
	pop.w	{r4, r5, r6, r7, r8, r9, r10, r11}
	.loc	1 96 7                          @ main_s.c:96:7
	b	.LBB5_9
.Ltmp15:
.LBB5_9:
	.loc	1 97 7                          @ main_s.c:97:7
	b	.LBB5_19
.LBB5_10:
.Ltmp16:
	.loc	1 99 11                         @ main_s.c:99:11
	movw	r0, :lower16:pfNonSecure_LED_Off
	movt	r0, :upper16:pfNonSecure_LED_Off
	ldr	r0, [r0]
.Ltmp17:
	.loc	1 99 11 is_stmt 0               @ main_s.c:99:11
	cbz	r0, .LBB5_12
	b	.LBB5_11
.LBB5_11:
.Ltmp18:
	.loc	1 101 9 is_stmt 1               @ main_s.c:101:9
	movw	r0, :lower16:pfNonSecure_LED_Off
	movt	r0, :upper16:pfNonSecure_LED_Off
	ldr	r1, [r0]
	movs	r0, #1
	push.w	{r4, r5, r6, r7, r8, r9, r10, r11}
	bic	r1, r1, #1
	sub	sp, #136
	vlstm	sp, {d0 - d15}
	mov	r2, r1
	mov	r3, r1
	mov	r4, r1
	mov	r5, r1
	mov	r6, r1
	mov	r7, r1
	mov	r8, r1
	mov	r9, r1
	mov	r10, r1
	mov	r11, r1
	mov	r12, r1
	msr	apsr_nzcvqg, r1
	blxns	r1
	mrs	r12, control
	tst.w	r12, #8
	it	ne
	vmovne.f32	s0, s0
	vlldm	sp, {d0 - d15}
	add	sp, #136
	pop.w	{r4, r5, r6, r7, r8, r9, r10, r11}
	.loc	1 102 7                         @ main_s.c:102:7
	b	.LBB5_12
.Ltmp19:
.LBB5_12:
	.loc	1 103 7                         @ main_s.c:103:7
	b	.LBB5_19
.LBB5_13:
	.loc	1 105 13                        @ main_s.c:105:13
	movw	r1, :lower16:SysTick_Handler.ticks
	movt	r1, :upper16:SysTick_Handler.ticks
	movs	r0, #0
	str	r0, [r1]
.Ltmp20:
	.loc	1 106 23                        @ main_s.c:106:23
	movw	r2, :lower16:SysTick_Handler.ticks_printf
	movt	r2, :upper16:SysTick_Handler.ticks_printf
	ldr	r0, [r2]
	adds	r1, r0, #1
	str	r1, [r2]
.Ltmp21:
	.loc	1 106 11 is_stmt 0              @ main_s.c:106:11
	cmp	r0, #3
	bne	.LBB5_15
	b	.LBB5_14
.LBB5_14:
.Ltmp22:
	.loc	1 108 9 is_stmt 1               @ main_s.c:108:9
	movw	r0, :lower16:.L.str
	movt	r0, :upper16:.L.str
	movw	r1, :lower16:text
	movt	r1, :upper16:text
	bl	printf
	.loc	1 109 22                        @ main_s.c:109:22
	movw	r1, :lower16:SysTick_Handler.ticks_printf
	movt	r1, :upper16:SysTick_Handler.ticks_printf
	movs	r0, #0
	str	r0, [r1]
	.loc	1 110 7                         @ main_s.c:110:7
	b	.LBB5_15
.Ltmp23:
.LBB5_15:
	.loc	1 111 7                         @ main_s.c:111:7
	b	.LBB5_19
.LBB5_16:
.Ltmp24:
	.loc	1 113 11                        @ main_s.c:113:11
	movw	r0, :lower16:SysTick_Handler.ticks
	movt	r0, :upper16:SysTick_Handler.ticks
	ldr	r0, [r0]
.Ltmp25:
	.loc	1 113 11 is_stmt 0              @ main_s.c:113:11
	cmp	r0, #100
	blo	.LBB5_18
	b	.LBB5_17
.LBB5_17:
.Ltmp26:
	.loc	1 114 15 is_stmt 1              @ main_s.c:114:15
	movw	r1, :lower16:SysTick_Handler.ticks
	movt	r1, :upper16:SysTick_Handler.ticks
	movs	r0, #0
	str	r0, [r1]
	.loc	1 115 7                         @ main_s.c:115:7
	b	.LBB5_18
.Ltmp27:
.LBB5_18:
	.loc	1 116 3                         @ main_s.c:116:3
	b	.LBB5_19
.Ltmp28:
.LBB5_19:
	.loc	1 117 1 epilogue_begin          @ main_s.c:117:1
	add	sp, #8
	pop	{r7, pc}
.Ltmp29:
.Lfunc_end5:
	.size	SysTick_Handler, .Lfunc_end5-SysTick_Handler
	.cfi_endproc
	.cantunwind
	.fnend
                                        @ -- End function
	.section	.text.matmul,"axR",%progbits
	.hidden	matmul                          @ -- Begin function matmul
	.globl	matmul
	.p2align	2
	.type	matmul,%function
	.code	16                              @ @matmul
	.thumb_func
matmul:
__tagsym$$used.0:
.Lfunc_begin6:
	.loc	1 122 0                         @ main_s.c:122:0
	.fnstart
	.cfi_startproc
@ %bb.0:
	.pad	#112
	sub	sp, #112
	.cfi_def_cfa_offset 112
	movs	r0, #0
.Ltmp30:
	.loc	1 124 6 prologue_end            @ main_s.c:124:6
	str	r0, [sp, #8]
.Ltmp31:
	.loc	1 125 6                         @ main_s.c:125:6
	ldr	r0, [sp, #8]
.Ltmp32:
	.loc	1 125 6 is_stmt 0               @ main_s.c:125:6
	cmp	r0, #1
	bne	.LBB6_2
	b	.LBB6_1
.LBB6_1:
.Ltmp33:
	.loc	1 126 6 is_stmt 1               @ main_s.c:126:6
	ldr	r0, [sp, #8]
	adds	r0, #1
	str	r0, [sp, #8]
	.loc	1 127 2                         @ main_s.c:127:2
	b	.LBB6_3
.Ltmp34:
.LBB6_2:
	.loc	1 129 7                         @ main_s.c:129:7
	ldr	r0, [sp, #8]
	adds	r0, #2
	str	r0, [sp, #8]
	b	.LBB6_3
.Ltmp35:
.LBB6_3:
	.loc	1 0 7 is_stmt 0                 @ main_s.c:0:7
	movs	r0, #0
.Ltmp36:
	.loc	1 132 11 is_stmt 1              @ main_s.c:132:11
	str	r0, [sp, #4]
	.loc	1 132 7 is_stmt 0               @ main_s.c:132:7
	b	.LBB6_4
.LBB6_4:                                @ =>This Loop Header: Depth=1
                                        @     Child Loop BB6_6 Depth 2
.Ltmp37:
	.loc	1 132 16                        @ main_s.c:132:16
	ldr	r0, [sp, #4]
.Ltmp38:
	.loc	1 132 2                         @ main_s.c:132:2
	cmp	r0, #4
	bgt	.LBB6_11
	b	.LBB6_5
.LBB6_5:                                @   in Loop: Header=BB6_4 Depth=1
	.loc	1 0 2                           @ main_s.c:0:2
	movs	r0, #0
.Ltmp39:
	.loc	1 133 12 is_stmt 1              @ main_s.c:133:12
	str	r0, [sp]
	.loc	1 133 8 is_stmt 0               @ main_s.c:133:8
	b	.LBB6_6
.LBB6_6:                                @   Parent Loop BB6_4 Depth=1
                                        @ =>  This Inner Loop Header: Depth=2
.Ltmp40:
	.loc	1 133 17                        @ main_s.c:133:17
	ldr	r0, [sp]
.Ltmp41:
	.loc	1 133 3                         @ main_s.c:133:3
	cmp	r0, #4
	bgt	.LBB6_9
	b	.LBB6_7
.LBB6_7:                                @   in Loop: Header=BB6_6 Depth=2
.Ltmp42:
	.loc	1 134 15 is_stmt 1              @ main_s.c:134:15
	ldr	r2, [sp, #4]
	.loc	1 134 11 is_stmt 0              @ main_s.c:134:11
	add.w	r0, r2, r2, lsl #2
	add	r1, sp, #12
	add.w	r0, r1, r0, lsl #2
	.loc	1 134 18                        @ main_s.c:134:18
	ldr	r3, [sp]
	.loc	1 134 11                        @ main_s.c:134:11
	ldr.w	r0, [r0, r3, lsl #2]
	.loc	1 134 23                        @ main_s.c:134:23
	add.w	r3, r3, r3, lsl #2
	add.w	r1, r1, r3, lsl #2
	ldr.w	r1, [r1, r2, lsl #2]
	.loc	1 134 21                        @ main_s.c:134:21
	add	r1, r0
	.loc	1 134 8                         @ main_s.c:134:8
	ldr	r0, [sp, #8]
	add	r0, r1
	str	r0, [sp, #8]
	.loc	1 135 3 is_stmt 1               @ main_s.c:135:3
	b	.LBB6_8
.Ltmp43:
.LBB6_8:                                @   in Loop: Header=BB6_6 Depth=2
	.loc	1 133 23                        @ main_s.c:133:23
	ldr	r0, [sp, #4]
	adds	r0, #1
	str	r0, [sp, #4]
	.loc	1 133 3 is_stmt 0               @ main_s.c:133:3
	b	.LBB6_6
.Ltmp44:
.LBB6_9:                                @   in Loop: Header=BB6_4 Depth=1
	.loc	1 136 2 is_stmt 1               @ main_s.c:136:2
	b	.LBB6_10
.Ltmp45:
.LBB6_10:                               @   in Loop: Header=BB6_4 Depth=1
	.loc	1 132 22                        @ main_s.c:132:22
	ldr	r0, [sp, #4]
	adds	r0, #1
	str	r0, [sp, #4]
	.loc	1 132 2 is_stmt 0               @ main_s.c:132:2
	b	.LBB6_4
.Ltmp46:
.LBB6_11:
	.loc	1 137 8 is_stmt 1               @ main_s.c:137:8
	ldr	r0, [sp, #8]
	.loc	1 137 11 is_stmt 0              @ main_s.c:137:11
	adds	r0, #2
	.loc	1 137 6                         @ main_s.c:137:6
	str	r0, [sp, #8]
	.loc	1 138 2 epilogue_begin is_stmt 1 @ main_s.c:138:2
	add	sp, #112
	bx	lr
.Ltmp47:
.Lfunc_end6:
	.size	matmul, .Lfunc_end6-matmul
	.cfi_endproc
	.cantunwind
	.fnend
                                        @ -- End function
	.section	.text.setup_MTB,"ax",%progbits
	.hidden	setup_MTB                       @ -- Begin function setup_MTB
	.globl	setup_MTB
	.p2align	2
	.type	setup_MTB,%function
	.code	16                              @ @setup_MTB
	.thumb_func
setup_MTB:
.Lfunc_begin7:
	.loc	1 148 0                         @ main_s.c:148:0
	.fnstart
	.cfi_startproc
@ %bb.0:
	.save	{r7, lr}
	push	{r7, lr}
	.cfi_def_cfa_offset 8
	.cfi_offset lr, -4
	.cfi_offset r7, -8
	.pad	#8
	sub	sp, #8
	.cfi_def_cfa_offset 16
.Ltmp48:
	.loc	1 150 38 prologue_end           @ main_s.c:150:38
	movw	r0, :lower16:mtb_buff
	movt	r0, :upper16:mtb_buff
	bic	r1, r0, #31
	.loc	1 150 2 is_stmt 0               @ main_s.c:150:2
	movw	r0, :lower16:mtb
	movt	r0, :upper16:mtb
	ldr	r2, [r0]
	.loc	1 150 16                        @ main_s.c:150:16
	str	r1, [r2, #12]
	.loc	1 151 2 is_stmt 1               @ main_s.c:151:2
	ldr	r2, [r0]
	movs	r1, #0
	.loc	1 151 16 is_stmt 0              @ main_s.c:151:16
	str	r1, [r2, #8]
	.loc	1 152 2 is_stmt 1               @ main_s.c:152:2
	ldr	r2, [r0]
	.loc	1 152 20 is_stmt 0              @ main_s.c:152:20
	str	r1, [r2]
	.loc	1 154 2 is_stmt 1               @ main_s.c:154:2
	ldr	r1, [r0]
	movs	r0, #47
	movt	r0, #32768
	.loc	1 154 18 is_stmt 0              @ main_s.c:154:18
	str	r0, [r1, #4]
	.loc	1 158 18 is_stmt 1              @ main_s.c:158:18
	movw	r0, :lower16:dwt
	movt	r0, :upper16:dwt
	ldr	r0, [r0]
	.loc	1 158 23 is_stmt 0              @ main_s.c:158:23
	ldr	r0, [r0]
	.loc	1 158 11                        @ main_s.c:158:11
	str	r0, [sp, #4]
	.loc	1 160 2 is_stmt 1               @ main_s.c:160:2
	bl	matmul
	.loc	1 162 2 epilogue_begin          @ main_s.c:162:2
	add	sp, #8
	pop	{r7, pc}
.Ltmp49:
.Lfunc_end7:
	.size	setup_MTB, .Lfunc_end7-setup_MTB
	.cfi_endproc
	.cantunwind
	.fnend
                                        @ -- End function
	.section	.text.main,"ax",%progbits
	.hidden	main                            @ -- Begin function main
	.globl	main
	.p2align	2
	.type	main,%function
	.code	16                              @ @main
	.thumb_func
main:
.Lfunc_begin8:
	.loc	1 175 0                         @ main_s.c:175:0
	.fnstart
	.cfi_startproc
@ %bb.0:
	.save	{r7, lr}
	push	{r7, lr}
	.cfi_def_cfa_offset 8
	.cfi_offset lr, -4
	.cfi_offset r7, -8
	.pad	#64
	sub	sp, #64
	.cfi_def_cfa_offset 72
	movs	r0, #0
	str	r0, [sp, #4]                    @ 4-byte Spill
	str	r0, [sp, #36]
	mov.w	r0, #2097152
.Ltmp50:
	.loc	1 176 64 prologue_end           @ main_s.c:176:64
	ldr	r0, [r0]
	.loc	1 176 20 is_stmt 0              @ main_s.c:176:20
	str	r0, [sp, #32]
	movs	r0, #4
	movt	r0, #32
	.loc	1 177 64 is_stmt 1              @ main_s.c:177:64
	ldr	r0, [r0]
	.loc	1 177 20 is_stmt 0              @ main_s.c:177:20
	str	r0, [sp, #28]
	.loc	1 180 31 is_stmt 1              @ main_s.c:180:31
	bl	SCB_GetFPUType
	.loc	1 180 21 is_stmt 0              @ main_s.c:180:21
	str	r0, [sp, #24]
	movw	r0, #20133
	movt	r0, #16711
	.loc	1 181 19 is_stmt 1              @ main_s.c:181:19
	str	r0, [sp, #20]
	movw	r0, #61077
	movt	r0, #16169
	.loc	1 182 19                        @ main_s.c:182:19
	str	r0, [sp, #16]
	movw	r0, #58255
	movt	r0, #16832
	.loc	1 183 19                        @ main_s.c:183:19
	str	r0, [sp, #12]
	.loc	1 185 8                         @ main_s.c:185:8
	vldr	s0, [sp, #12]
	.loc	1 185 14 is_stmt 0              @ main_s.c:185:14
	vldr	s2, [sp, #20]
	.loc	1 185 19                        @ main_s.c:185:19
	vldr	s4, [sp, #16]
	.loc	1 185 17                        @ main_s.c:185:17
	vdiv.f32	s2, s2, s4
	.loc	1 185 11                        @ main_s.c:185:11
	vmul.f32	s0, s0, s2
	.loc	1 185 6                         @ main_s.c:185:6
	vstr	s0, [sp, #12]
.Ltmp51:
	.file	6 "C:/Users/aj4775/AppData/Local/arm/packs/ARM/CMSIS/6.1.0/CMSIS/Core/Include\\./m-profile" "cmsis_armclang_m.h"
	.loc	6 284 3 is_stmt 1               @ C:/Users/aj4775/AppData/Local/arm/packs/ARM/CMSIS/6.1.0/CMSIS/Core/Include\./m-profile/cmsis_armclang_m.h:284:3
	@APP
	mrs	r0, msp
	@NO_APP
	str	r0, [sp, #40]
	.loc	6 285 11                        @ C:/Users/aj4775/AppData/Local/arm/packs/ARM/CMSIS/6.1.0/CMSIS/Core/Include\./m-profile/cmsis_armclang_m.h:285:11
	ldr	r0, [sp, #40]
.Ltmp52:
	.loc	1 188 5                         @ main_s.c:188:5
	movw	r1, :lower16:x
	movt	r1, :upper16:x
	str	r0, [r1]
.Ltmp53:
	.loc	6 230 3                         @ C:/Users/aj4775/AppData/Local/arm/packs/ARM/CMSIS/6.1.0/CMSIS/Core/Include\./m-profile/cmsis_armclang_m.h:230:3
	@APP
	mrs	r0, psp
	@NO_APP
	str	r0, [sp, #44]
	.loc	6 231 11                        @ C:/Users/aj4775/AppData/Local/arm/packs/ARM/CMSIS/6.1.0/CMSIS/Core/Include\./m-profile/cmsis_armclang_m.h:231:11
	ldr	r0, [sp, #44]
.Ltmp54:
	.loc	1 189 5                         @ main_s.c:189:5
	str	r0, [r1]
	.loc	1 190 19                        @ main_s.c:190:19
	ldr	r0, [sp, #32]
	str	r0, [sp, #48]
.Ltmp55:
	.loc	6 324 45                        @ C:/Users/aj4775/AppData/Local/arm/packs/ARM/CMSIS/6.1.0/CMSIS/Core/Include\./m-profile/cmsis_armclang_m.h:324:45
	ldr	r0, [sp, #48]
	.loc	6 324 3 is_stmt 0               @ C:/Users/aj4775/AppData/Local/arm/packs/ARM/CMSIS/6.1.0/CMSIS/Core/Include\./m-profile/cmsis_armclang_m.h:324:3
	@APP
	msr	msp_ns, r0
	@NO_APP
.Ltmp56:
	.loc	6 299 3 is_stmt 1               @ C:/Users/aj4775/AppData/Local/arm/packs/ARM/CMSIS/6.1.0/CMSIS/Core/Include\./m-profile/cmsis_armclang_m.h:299:3
	@APP
	mrs	r0, msp_ns
	@NO_APP
	str	r0, [sp, #52]
	.loc	6 300 11                        @ C:/Users/aj4775/AppData/Local/arm/packs/ARM/CMSIS/6.1.0/CMSIS/Core/Include\./m-profile/cmsis_armclang_m.h:300:11
	ldr	r0, [sp, #52]
.Ltmp57:
	.loc	1 191 5                         @ main_s.c:191:5
	str	r0, [r1]
	mov.w	r0, #570425344
	str	r0, [sp, #56]
.Ltmp58:
	.loc	6 270 45                        @ C:/Users/aj4775/AppData/Local/arm/packs/ARM/CMSIS/6.1.0/CMSIS/Core/Include\./m-profile/cmsis_armclang_m.h:270:45
	ldr	r0, [sp, #56]
	.loc	6 270 3 is_stmt 0               @ C:/Users/aj4775/AppData/Local/arm/packs/ARM/CMSIS/6.1.0/CMSIS/Core/Include\./m-profile/cmsis_armclang_m.h:270:3
	@APP
	msr	psp_ns, r0
	@NO_APP
.Ltmp59:
	.loc	6 245 3 is_stmt 1               @ C:/Users/aj4775/AppData/Local/arm/packs/ARM/CMSIS/6.1.0/CMSIS/Core/Include\./m-profile/cmsis_armclang_m.h:245:3
	@APP
	mrs	r0, psp_ns
	@NO_APP
	str	r0, [sp, #60]
	.loc	6 246 11                        @ C:/Users/aj4775/AppData/Local/arm/packs/ARM/CMSIS/6.1.0/CMSIS/Core/Include\./m-profile/cmsis_armclang_m.h:246:11
	ldr	r0, [sp, #60]
.Ltmp60:
	.loc	1 193 5                         @ main_s.c:193:5
	str	r0, [r1]
	.loc	1 195 3                         @ main_s.c:195:3
	bl	SystemCoreClockUpdate
	.loc	1 197 3                         @ main_s.c:197:3
	bl	stdout_init
	.loc	1 198 3                         @ main_s.c:198:3
	bl	LED_Initialize
	.loc	1 199 3                         @ main_s.c:199:3
	bl	GLCD_Initialize
	.loc	1 202 3                         @ main_s.c:202:3
	movw	r0, :lower16:GLCD_Font_16x24
	movt	r0, :upper16:GLCD_Font_16x24
	bl	GLCD_SetFont
	movw	r0, #65535
	.loc	1 203 3                         @ main_s.c:203:3
	str	r0, [sp]                        @ 4-byte Spill
	bl	GLCD_SetBackgroundColor
	.loc	1 204 3                         @ main_s.c:204:3
	bl	GLCD_ClearScreen
	movs	r0, #31
	.loc	1 205 3                         @ main_s.c:205:3
	bl	GLCD_SetBackgroundColor
	mov.w	r0, #63488
	.loc	1 206 3                         @ main_s.c:206:3
	bl	GLCD_SetForegroundColor
	ldr	r1, [sp, #4]                    @ 4-byte Reload
	.loc	1 207 3                         @ main_s.c:207:3
	movw	r2, :lower16:.L.str.1
	movt	r2, :upper16:.L.str.1
	mov	r0, r1
	bl	GLCD_DrawString
                                        @ kill: def $r1 killed $r0
	.loc	1 208 3                         @ main_s.c:208:3
	ldr	r0, [sp, #4]                    @ 4-byte Reload
	movw	r2, :lower16:.L.str.2
	movt	r2, :upper16:.L.str.2
	movs	r1, #24
	bl	GLCD_DrawString
                                        @ kill: def $r1 killed $r0
	.loc	1 209 3                         @ main_s.c:209:3
	ldr	r0, [sp, #4]                    @ 4-byte Reload
	movw	r2, :lower16:.L.str.3
	movt	r2, :upper16:.L.str.3
	movs	r1, #48
	bl	GLCD_DrawString
                                        @ kill: def $r1 killed $r0
	.loc	1 211 3                         @ main_s.c:211:3
	ldr	r0, [sp]                        @ 4-byte Reload
	bl	GLCD_SetBackgroundColor
                                        @ kill: def $r1 killed $r0
	.loc	1 212 3                         @ main_s.c:212:3
	ldr	r0, [sp, #4]                    @ 4-byte Reload
	bl	GLCD_SetForegroundColor
	movw	r0, #60672
	movt	r0, #57344
	.loc	1 213 17                        @ main_s.c:213:17
	ldr	r0, [r0]
	.loc	1 213 29 is_stmt 0              @ main_s.c:213:29
	ubfx	r0, r0, #4, #12
	.loc	1 213 3                         @ main_s.c:213:3
	mov	r1, r0
	str	r1, [sp, #8]                    @ 4-byte Spill
	cmp.w	r0, #3360
	beq	.LBB8_2
	b	.LBB8_1
.LBB8_1:
	.loc	1 0 3                           @ main_s.c:0:3
	ldr	r0, [sp, #8]                    @ 4-byte Reload
	movw	r1, #3361
	.loc	1 213 3                         @ main_s.c:213:3
	cmp	r0, r1
	beq	.LBB8_3
	b	.LBB8_4
.LBB8_2:
.Ltmp61:
	.loc	1 215 7 is_stmt 1               @ main_s.c:215:7
	movw	r2, :lower16:.L.str.4
	movt	r2, :upper16:.L.str.4
	movs	r0, #0
	movs	r1, #96
	bl	GLCD_DrawString
	.loc	1 216 7                         @ main_s.c:216:7
	b	.LBB8_5
.LBB8_3:
	.loc	1 218 7                         @ main_s.c:218:7
	movw	r2, :lower16:.L.str.5
	movt	r2, :upper16:.L.str.5
	movs	r0, #0
	movs	r1, #96
	bl	GLCD_DrawString
	.loc	1 219 7                         @ main_s.c:219:7
	b	.LBB8_5
.LBB8_4:
	.loc	1 221 7                         @ main_s.c:221:7
	movw	r2, :lower16:.L.str.6
	movt	r2, :upper16:.L.str.6
	movs	r0, #0
	movs	r1, #96
	bl	GLCD_DrawString
	.loc	1 222 7                         @ main_s.c:222:7
	b	.LBB8_5
.Ltmp62:
.LBB8_5:
	.loc	1 228 18                        @ main_s.c:228:18
	movw	r0, :lower16:SystemCoreClock
	movt	r0, :upper16:SystemCoreClock
	ldr	r0, [r0]
	movw	r1, #34079
	movt	r1, #20971
	.loc	1 228 34 is_stmt 0              @ main_s.c:228:34
	umull	r1, r0, r0, r1
	lsrs	r0, r0, #5
	.loc	1 228 3                         @ main_s.c:228:3
	bl	SysTick_Config
	.loc	1 230 2 is_stmt 1               @ main_s.c:230:2
	bl	setup_MTB
	.loc	1 232 3                         @ main_s.c:232:3
	ldr	r0, [sp, #28]
	push.w	{r4, r5, r6, r7, r8, r9, r10, r11}
	bic	r0, r0, #1
	sub	sp, #136
	vlstm	sp, {d0 - d15}
	mov	r1, r0
	mov	r2, r0
	mov	r3, r0
	mov	r4, r0
	mov	r5, r0
	mov	r6, r0
	mov	r7, r0
	mov	r8, r0
	mov	r9, r0
	mov	r10, r0
	mov	r11, r0
	mov	r12, r0
	msr	apsr_nzcvqg, r0
	blxns	r0
	mrs	r12, control
	tst.w	r12, #8
	it	ne
	vmovne.f32	s0, s0
	vlldm	sp, {d0 - d15}
	add	sp, #136
	pop.w	{r4, r5, r6, r7, r8, r9, r10, r11}
	.loc	1 236 1                         @ main_s.c:236:1
	ldr	r0, [sp, #36]
	.loc	1 236 1 epilogue_begin is_stmt 0 @ main_s.c:236:1
	add	sp, #64
	pop	{r7, pc}
.Ltmp63:
.Lfunc_end8:
	.size	main, .Lfunc_end8-main
	.cfi_endproc
	.cantunwind
	.fnend
                                        @ -- End function
	.section	.text.SCB_GetFPUType,"ax",%progbits
	.p2align	2                               @ -- Begin function SCB_GetFPUType
	.type	SCB_GetFPUType,%function
	.code	16                              @ @SCB_GetFPUType
	.thumb_func
SCB_GetFPUType:
.Lfunc_begin9:
	.loc	5 2924 0 is_stmt 1              @ C:/Users/aj4775/AppData/Local/arm/packs/ARM/CMSIS/6.1.0/CMSIS/Core/Include\core_cm33.h:2924:0
	.fnstart
	.cfi_startproc
@ %bb.0:
	.pad	#8
	sub	sp, #8
	.cfi_def_cfa_offset 8
	movw	r0, #61248
	movt	r0, #57344
.Ltmp64:
	.loc	5 2927 16 prologue_end          @ C:/Users/aj4775/AppData/Local/arm/packs/ARM/CMSIS/6.1.0/CMSIS/Core/Include\core_cm33.h:2927:16
	ldr	r0, [r0]
	.loc	5 2927 9 is_stmt 0              @ C:/Users/aj4775/AppData/Local/arm/packs/ARM/CMSIS/6.1.0/CMSIS/Core/Include\core_cm33.h:2927:9
	str	r0, [sp]
.Ltmp65:
	.loc	5 2928 13 is_stmt 1             @ C:/Users/aj4775/AppData/Local/arm/packs/ARM/CMSIS/6.1.0/CMSIS/Core/Include\core_cm33.h:2928:13
	ldr	r0, [sp]
	.loc	5 2928 19 is_stmt 0             @ C:/Users/aj4775/AppData/Local/arm/packs/ARM/CMSIS/6.1.0/CMSIS/Core/Include\core_cm33.h:2928:19
	and	r0, r0, #4080
.Ltmp66:
	.loc	5 2928 12                       @ C:/Users/aj4775/AppData/Local/arm/packs/ARM/CMSIS/6.1.0/CMSIS/Core/Include\core_cm33.h:2928:12
	cmp.w	r0, #544
	bne	.LBB9_2
	b	.LBB9_1
.LBB9_1:
	.loc	5 0 12                          @ C:/Users/aj4775/AppData/Local/arm/packs/ARM/CMSIS/6.1.0/CMSIS/Core/Include\core_cm33.h:0:12
	movs	r0, #2
.Ltmp67:
	.loc	5 2930 5 is_stmt 1              @ C:/Users/aj4775/AppData/Local/arm/packs/ARM/CMSIS/6.1.0/CMSIS/Core/Include\core_cm33.h:2930:5
	str	r0, [sp, #4]
	b	.LBB9_5
.Ltmp68:
.LBB9_2:
	.loc	5 2932 13                       @ C:/Users/aj4775/AppData/Local/arm/packs/ARM/CMSIS/6.1.0/CMSIS/Core/Include\core_cm33.h:2932:13
	ldr	r0, [sp]
	.loc	5 2932 19 is_stmt 0             @ C:/Users/aj4775/AppData/Local/arm/packs/ARM/CMSIS/6.1.0/CMSIS/Core/Include\core_cm33.h:2932:19
	and	r0, r0, #4080
.Ltmp69:
	.loc	5 2932 12                       @ C:/Users/aj4775/AppData/Local/arm/packs/ARM/CMSIS/6.1.0/CMSIS/Core/Include\core_cm33.h:2932:12
	cmp	r0, #32
	bne	.LBB9_4
	b	.LBB9_3
.LBB9_3:
	.loc	5 0 12                          @ C:/Users/aj4775/AppData/Local/arm/packs/ARM/CMSIS/6.1.0/CMSIS/Core/Include\core_cm33.h:0:12
	movs	r0, #1
.Ltmp70:
	.loc	5 2934 5 is_stmt 1              @ C:/Users/aj4775/AppData/Local/arm/packs/ARM/CMSIS/6.1.0/CMSIS/Core/Include\core_cm33.h:2934:5
	str	r0, [sp, #4]
	b	.LBB9_5
.Ltmp71:
.LBB9_4:
	.loc	5 0 5 is_stmt 0                 @ C:/Users/aj4775/AppData/Local/arm/packs/ARM/CMSIS/6.1.0/CMSIS/Core/Include\core_cm33.h:0:5
	movs	r0, #0
.Ltmp72:
	.loc	5 2938 5 is_stmt 1              @ C:/Users/aj4775/AppData/Local/arm/packs/ARM/CMSIS/6.1.0/CMSIS/Core/Include\core_cm33.h:2938:5
	str	r0, [sp, #4]
	b	.LBB9_5
.Ltmp73:
.LBB9_5:
	.loc	5 2940 1                        @ C:/Users/aj4775/AppData/Local/arm/packs/ARM/CMSIS/6.1.0/CMSIS/Core/Include\core_cm33.h:2940:1
	ldr	r0, [sp, #4]
	.loc	5 2940 1 epilogue_begin is_stmt 0 @ C:/Users/aj4775/AppData/Local/arm/packs/ARM/CMSIS/6.1.0/CMSIS/Core/Include\core_cm33.h:2940:1
	add	sp, #8
	bx	lr
.Ltmp74:
.Lfunc_end9:
	.size	SCB_GetFPUType, .Lfunc_end9-SCB_GetFPUType
	.cfi_endproc
	.cantunwind
	.fnend
                                        @ -- End function
	.section	.text.SysTick_Config,"ax",%progbits
	.p2align	2                               @ -- Begin function SysTick_Config
	.type	SysTick_Config,%function
	.code	16                              @ @SysTick_Config
	.thumb_func
SysTick_Config:
.Lfunc_begin10:
	.loc	5 3109 0 is_stmt 1              @ C:/Users/aj4775/AppData/Local/arm/packs/ARM/CMSIS/6.1.0/CMSIS/Core/Include\core_cm33.h:3109:0
	.fnstart
	.cfi_startproc
@ %bb.0:
	.save	{r7, lr}
	push	{r7, lr}
	.cfi_def_cfa_offset 8
	.cfi_offset lr, -4
	.cfi_offset r7, -8
	.pad	#16
	sub	sp, #16
	.cfi_def_cfa_offset 24
	str	r0, [sp, #8]
.Ltmp75:
	.loc	5 3110 8 prologue_end           @ C:/Users/aj4775/AppData/Local/arm/packs/ARM/CMSIS/6.1.0/CMSIS/Core/Include\core_cm33.h:3110:8
	ldr	r0, [sp, #8]
	.loc	5 3110 14 is_stmt 0             @ C:/Users/aj4775/AppData/Local/arm/packs/ARM/CMSIS/6.1.0/CMSIS/Core/Include\core_cm33.h:3110:14
	subs	r0, #1
.Ltmp76:
	.loc	5 3110 7                        @ C:/Users/aj4775/AppData/Local/arm/packs/ARM/CMSIS/6.1.0/CMSIS/Core/Include\core_cm33.h:3110:7
	cmp.w	r0, #16777216
	blo	.LBB10_2
	b	.LBB10_1
.LBB10_1:
	.loc	5 0 7                           @ C:/Users/aj4775/AppData/Local/arm/packs/ARM/CMSIS/6.1.0/CMSIS/Core/Include\core_cm33.h:0:7
	movs	r0, #1
.Ltmp77:
	.loc	5 3112 5 is_stmt 1              @ C:/Users/aj4775/AppData/Local/arm/packs/ARM/CMSIS/6.1.0/CMSIS/Core/Include\core_cm33.h:3112:5
	str	r0, [sp, #12]
	b	.LBB10_3
.Ltmp78:
.LBB10_2:
	.loc	5 3115 31                       @ C:/Users/aj4775/AppData/Local/arm/packs/ARM/CMSIS/6.1.0/CMSIS/Core/Include\core_cm33.h:3115:31
	ldr	r0, [sp, #8]
	.loc	5 3115 37 is_stmt 0             @ C:/Users/aj4775/AppData/Local/arm/packs/ARM/CMSIS/6.1.0/CMSIS/Core/Include\core_cm33.h:3115:37
	subs	r0, #1
	movw	r1, #57364
	movt	r1, #57344
	.loc	5 3115 18                       @ C:/Users/aj4775/AppData/Local/arm/packs/ARM/CMSIS/6.1.0/CMSIS/Core/Include\core_cm33.h:3115:18
	str	r0, [r1]
	mov.w	r0, #-1
	movs	r1, #7
	.loc	5 3116 3 is_stmt 1              @ C:/Users/aj4775/AppData/Local/arm/packs/ARM/CMSIS/6.1.0/CMSIS/Core/Include\core_cm33.h:3116:3
	str	r1, [sp, #4]                    @ 4-byte Spill
	bl	__NVIC_SetPriority
	ldr	r1, [sp, #4]                    @ 4-byte Reload
	movw	r2, #57368
	movt	r2, #57344
	movs	r0, #0
	.loc	5 3117 18                       @ C:/Users/aj4775/AppData/Local/arm/packs/ARM/CMSIS/6.1.0/CMSIS/Core/Include\core_cm33.h:3117:18
	str	r0, [r2]
	movw	r2, #57360
	movt	r2, #57344
	.loc	5 3118 18                       @ C:/Users/aj4775/AppData/Local/arm/packs/ARM/CMSIS/6.1.0/CMSIS/Core/Include\core_cm33.h:3118:18
	str	r1, [r2]
	.loc	5 3121 3                        @ C:/Users/aj4775/AppData/Local/arm/packs/ARM/CMSIS/6.1.0/CMSIS/Core/Include\core_cm33.h:3121:3
	str	r0, [sp, #12]
	b	.LBB10_3
.LBB10_3:
	.loc	5 3122 1                        @ C:/Users/aj4775/AppData/Local/arm/packs/ARM/CMSIS/6.1.0/CMSIS/Core/Include\core_cm33.h:3122:1
	ldr	r0, [sp, #12]
	.loc	5 3122 1 epilogue_begin is_stmt 0 @ C:/Users/aj4775/AppData/Local/arm/packs/ARM/CMSIS/6.1.0/CMSIS/Core/Include\core_cm33.h:3122:1
	add	sp, #16
	pop	{r7, pc}
.Ltmp79:
.Lfunc_end10:
	.size	SysTick_Config, .Lfunc_end10-SysTick_Config
	.cfi_endproc
	.cantunwind
	.fnend
                                        @ -- End function
	.section	.text.__NVIC_SetPriority,"ax",%progbits
	.p2align	2                               @ -- Begin function __NVIC_SetPriority
	.type	__NVIC_SetPriority,%function
	.code	16                              @ @__NVIC_SetPriority
	.thumb_func
__NVIC_SetPriority:
.Lfunc_begin11:
	.loc	5 2556 0 is_stmt 1              @ C:/Users/aj4775/AppData/Local/arm/packs/ARM/CMSIS/6.1.0/CMSIS/Core/Include\core_cm33.h:2556:0
	.fnstart
	.cfi_startproc
@ %bb.0:
	.pad	#8
	sub	sp, #8
	.cfi_def_cfa_offset 8
                                        @ kill: def $r2 killed $r0
	strb.w	r0, [sp, #7]
	str	r1, [sp]
.Ltmp80:
	.loc	5 2557 17 prologue_end          @ C:/Users/aj4775/AppData/Local/arm/packs/ARM/CMSIS/6.1.0/CMSIS/Core/Include\core_cm33.h:2557:17
	ldrsb.w	r0, [sp, #7]
.Ltmp81:
	.loc	5 2557 7 is_stmt 0              @ C:/Users/aj4775/AppData/Local/arm/packs/ARM/CMSIS/6.1.0/CMSIS/Core/Include\core_cm33.h:2557:7
	cmp	r0, #0
	bmi	.LBB11_2
	b	.LBB11_1
.LBB11_1:
.Ltmp82:
	.loc	5 2559 60 is_stmt 1             @ C:/Users/aj4775/AppData/Local/arm/packs/ARM/CMSIS/6.1.0/CMSIS/Core/Include\core_cm33.h:2559:60
	ldr	r0, [sp]
	.loc	5 2559 69 is_stmt 0             @ C:/Users/aj4775/AppData/Local/arm/packs/ARM/CMSIS/6.1.0/CMSIS/Core/Include\core_cm33.h:2559:69
	lsls	r0, r0, #5
	.loc	5 2559 26                       @ C:/Users/aj4775/AppData/Local/arm/packs/ARM/CMSIS/6.1.0/CMSIS/Core/Include\core_cm33.h:2559:26
	ldrsb.w	r1, [sp, #7]
	movw	r2, #58368
	movt	r2, #57344
	.loc	5 2559 47                       @ C:/Users/aj4775/AppData/Local/arm/packs/ARM/CMSIS/6.1.0/CMSIS/Core/Include\core_cm33.h:2559:47
	strb	r0, [r1, r2]
	.loc	5 2560 3 is_stmt 1              @ C:/Users/aj4775/AppData/Local/arm/packs/ARM/CMSIS/6.1.0/CMSIS/Core/Include\core_cm33.h:2560:3
	b	.LBB11_3
.Ltmp83:
.LBB11_2:
	.loc	5 2563 60                       @ C:/Users/aj4775/AppData/Local/arm/packs/ARM/CMSIS/6.1.0/CMSIS/Core/Include\core_cm33.h:2563:60
	ldr	r0, [sp]
	.loc	5 2563 69 is_stmt 0             @ C:/Users/aj4775/AppData/Local/arm/packs/ARM/CMSIS/6.1.0/CMSIS/Core/Include\core_cm33.h:2563:69
	lsls	r0, r0, #5
	.loc	5 2563 17                       @ C:/Users/aj4775/AppData/Local/arm/packs/ARM/CMSIS/6.1.0/CMSIS/Core/Include\core_cm33.h:2563:17
	ldrb.w	r1, [sp, #7]
	.loc	5 2563 33                       @ C:/Users/aj4775/AppData/Local/arm/packs/ARM/CMSIS/6.1.0/CMSIS/Core/Include\core_cm33.h:2563:33
	and	r1, r1, #15
	movw	r2, #60692
	movt	r2, #57344
	.loc	5 2563 47                       @ C:/Users/aj4775/AppData/Local/arm/packs/ARM/CMSIS/6.1.0/CMSIS/Core/Include\core_cm33.h:2563:47
	strb	r0, [r1, r2]
	b	.LBB11_3
.Ltmp84:
.LBB11_3:
	.loc	5 2565 1 epilogue_begin is_stmt 1 @ C:/Users/aj4775/AppData/Local/arm/packs/ARM/CMSIS/6.1.0/CMSIS/Core/Include\core_cm33.h:2565:1
	add	sp, #8
	bx	lr
.Ltmp85:
.Lfunc_end11:
	.size	__NVIC_SetPriority, .Lfunc_end11-__NVIC_SetPriority
	.cfi_endproc
	.cantunwind
	.fnend
                                        @ -- End function
	.hidden	text                            @ @text
	.type	text,%object
	.section	.data.text,"aw",%progbits
	.globl	text
text:
	.asciz	"Hello World (secure)\r\n"
	.size	text, 23

	.hidden	pfNonSecure_LED_On              @ @pfNonSecure_LED_On
	.type	pfNonSecure_LED_On,%object
	.section	.bss.pfNonSecure_LED_On,"aw",%nobits
	.globl	pfNonSecure_LED_On
	.p2align	2, 0x0
pfNonSecure_LED_On:
	.long	0
	.size	pfNonSecure_LED_On, 4

	.hidden	pfNonSecure_LED_Off             @ @pfNonSecure_LED_Off
	.type	pfNonSecure_LED_Off,%object
	.section	.bss.pfNonSecure_LED_Off,"aw",%nobits
	.globl	pfNonSecure_LED_Off
	.p2align	2, 0x0
pfNonSecure_LED_Off:
	.long	0
	.size	pfNonSecure_LED_Off, 4

	.type	.L.str,%object                  @ @.str
	.section	.rodata.str1.1,"aMS",%progbits,1
.L.str:
	.asciz	"%s"
	.size	.L.str, 3

	.type	SysTick_Handler.ticks,%object   @ @SysTick_Handler.ticks
	.section	.bss.SysTick_Handler.ticks,"aw",%nobits
	.p2align	2, 0x0
SysTick_Handler.ticks:
	.long	0                               @ 0x0
	.size	SysTick_Handler.ticks, 4

	.type	SysTick_Handler.ticks_printf,%object @ @SysTick_Handler.ticks_printf
	.section	.bss.SysTick_Handler.ticks_printf,"aw",%nobits
	.p2align	2, 0x0
SysTick_Handler.ticks_printf:
	.long	0                               @ 0x0
	.size	SysTick_Handler.ticks_printf, 4

	.hidden	mtb                             @ @mtb
	.type	mtb,%object
	.section	.data.mtb,"aw",%progbits
	.globl	mtb
	.p2align	2, 0x0
mtb:
	.long	3758370816
	.size	mtb, 4

	.hidden	dwt                             @ @dwt
	.type	dwt,%object
	.section	.data.dwt,"aw",%progbits
	.globl	dwt
	.p2align	2, 0x0
dwt:
	.long	3758100480
	.size	dwt, 4

	.hidden	mtb_buff                        @ @mtb_buff
	.type	mtb_buff,%object
	.section	.bss.mtb_buff,"aw",%nobits
	.globl	mtb_buff
	.p2align	6, 0x0
mtb_buff:
	.zero	512
	.size	mtb_buff, 512

	.type	x,%object                       @ @x
	.section	.bss.x,"aw",%nobits
	.p2align	2, 0x0
x:
	.long	0                               @ 0x0
	.size	x, 4

	.type	.L.str.1,%object                @ @.str.1
	.section	.rodata.str1.1,"aMS",%progbits,1
.L.str.1:
	.asciz	"   V2M-MPS2+ Demo   "
	.size	.L.str.1, 21

	.type	.L.str.2,%object                @ @.str.2
.L.str.2:
	.asciz	" Secure/Non-Secure  "
	.size	.L.str.2, 21

	.type	.L.str.3,%object                @ @.str.3
.L.str.3:
	.asciz	"   www.keil.com     "
	.size	.L.str.3, 21

	.type	.L.str.4,%object                @ @.str.4
.L.str.4:
	.asciz	"  Cortex-M23        "
	.size	.L.str.4, 21

	.type	.L.str.5,%object                @ @.str.5
.L.str.5:
	.asciz	"  Cortex-M33        "
	.size	.L.str.5, 21

	.type	.L.str.6,%object                @ @.str.6
.L.str.6:
	.asciz	"  unknown Cortex-M  "
	.size	.L.str.6, 21

	.type	__ARM_use_no_argv,%object       @ @__ARM_use_no_argv
	.section	.ARM.use_no_argv,"awR",%progbits,unique,1
	.globl	__ARM_use_no_argv
	.p2align	2, 0x0
__ARM_use_no_argv:
	.long	1                               @ 0x1
	.size	__ARM_use_no_argv, 4

	.section	".note.GNU-stack","",%progbits
	.eabi_attribute	30, 6	@ Tag_ABI_optimization_goals
	.ARM_attribute	16, 1	@ Tag_AV_eba